ARM GAS  C:\Users\28212\AppData\Local\Temp\ccxglu5r.s 			page 1


   1              		.cpu cortex-m4
   2              		.arch armv7e-m
   3              		.fpu fpv4-sp-d16
   4              		.eabi_attribute 27, 1
   5              		.eabi_attribute 28, 1
   6              		.eabi_attribute 20, 1
   7              		.eabi_attribute 21, 1
   8              		.eabi_attribute 23, 3
   9              		.eabi_attribute 24, 1
  10              		.eabi_attribute 25, 1
  11              		.eabi_attribute 26, 1
  12              		.eabi_attribute 30, 1
  13              		.eabi_attribute 34, 1
  14              		.eabi_attribute 18, 4
  15              		.file	"bsp_servo.c"
  16              		.text
  17              	.Ltext0:
  18              		.cfi_sections	.debug_frame
  19              		.section	.text.Servo_Init,"ax",%progbits
  20              		.align	1
  21              		.global	Servo_Init
  22              		.syntax unified
  23              		.thumb
  24              		.thumb_func
  26              	Servo_Init:
  27              	.LVL0:
  28              	.LFB130:
  29              		.file 1 "ACE-ECF/Bsp/Src/bsp_servo.c"
   1:ACE-ECF/Bsp/Src/bsp_servo.c **** /*************************** Dongguan-University of Technology -ACE**************************
   2:ACE-ECF/Bsp/Src/bsp_servo.c ****  * @file    bsp_servo.c
   3:ACE-ECF/Bsp/Src/bsp_servo.c ****  * @author  cayon
   4:ACE-ECF/Bsp/Src/bsp_servo.c ****  * @version V0.1.0
   5:ACE-ECF/Bsp/Src/bsp_servo.c ****  * @date    2023/10/24
   6:ACE-ECF/Bsp/Src/bsp_servo.c ****  * @brief
   7:ACE-ECF/Bsp/Src/bsp_servo.c ****  ******************************************************************************
   8:ACE-ECF/Bsp/Src/bsp_servo.c ****  * @verbatim
   9:ACE-ECF/Bsp/Src/bsp_servo.c ****  *  驱动舵机
  10:ACE-ECF/Bsp/Src/bsp_servo.c ****  *  使用方法：
  11:ACE-ECF/Bsp/Src/bsp_servo.c ****  *  初始化舵机
  12:ACE-ECF/Bsp/Src/bsp_servo.c ****  *
  13:ACE-ECF/Bsp/Src/bsp_servo.c ****  *  设定角度
  14:ACE-ECF/Bsp/Src/bsp_servo.c ****  *
  15:ACE-ECF/Bsp/Src/bsp_servo.c ****  *  demo：
  16:ACE-ECF/Bsp/Src/bsp_servo.c ****  *        Servo_Init(&htim1,1);//初始化tim1的定时器通道1
  17:ACE-ECF/Bsp/Src/bsp_servo.c ****  *       角度设定：Servo_SetAngle(&htim1,TIM_CHANNEL_1,50)//表示舵机旋转50度
  18:ACE-ECF/Bsp/Src/bsp_servo.c ****  *       
  19:ACE-ECF/Bsp/Src/bsp_servo.c ****  * @attention
  20:ACE-ECF/Bsp/Src/bsp_servo.c ****  *      
  21:ACE-ECF/Bsp/Src/bsp_servo.c ****  *      
  22:ACE-ECF/Bsp/Src/bsp_servo.c ****  * @version
  23:ACE-ECF/Bsp/Src/bsp_servo.c ****  * v0.1.0 完成基本功能，所有功能已验证
  24:ACE-ECF/Bsp/Src/bsp_servo.c ****  ************************** Dongguan-University of Technology -ACE***************************/
  25:ACE-ECF/Bsp/Src/bsp_servo.c **** 
  26:ACE-ECF/Bsp/Src/bsp_servo.c **** #include "bsp_servo.h"
  27:ACE-ECF/Bsp/Src/bsp_servo.c **** 
  28:ACE-ECF/Bsp/Src/bsp_servo.c **** 
  29:ACE-ECF/Bsp/Src/bsp_servo.c **** /**
ARM GAS  C:\Users\28212\AppData\Local\Temp\ccxglu5r.s 			page 2


  30:ACE-ECF/Bsp/Src/bsp_servo.c ****   * @brief  舵机PWM初始化.
  31:ACE-ECF/Bsp/Src/bsp_servo.c ****   * @param  htim TIM handle
  32:ACE-ECF/Bsp/Src/bsp_servo.c ****   * @param  Channel TIM Channels to be enabled
  33:ACE-ECF/Bsp/Src/bsp_servo.c ****   * @retval 无
  34:ACE-ECF/Bsp/Src/bsp_servo.c ****   */
  35:ACE-ECF/Bsp/Src/bsp_servo.c **** void Servo_Init(TIM_HandleTypeDef *htim,uint32_t ch)
  36:ACE-ECF/Bsp/Src/bsp_servo.c **** {
  30              		.loc 1 36 1 view -0
  31              		.cfi_startproc
  32              		@ args = 0, pretend = 0, frame = 0
  33              		@ frame_needed = 0, uses_anonymous_args = 0
  34              		.loc 1 36 1 is_stmt 0 view .LVU1
  35 0000 08B5     		push	{r3, lr}
  36              	.LCFI0:
  37              		.cfi_def_cfa_offset 8
  38              		.cfi_offset 3, -8
  39              		.cfi_offset 14, -4
  37:ACE-ECF/Bsp/Src/bsp_servo.c ****     switch(ch)
  40              		.loc 1 37 5 is_stmt 1 view .LVU2
  41 0002 0139     		subs	r1, r1, #1
  42              	.LVL1:
  43              		.loc 1 37 5 is_stmt 0 view .LVU3
  44 0004 0329     		cmp	r1, #3
  45 0006 06D8     		bhi	.L1
  46 0008 DFE801F0 		tbb	[pc, r1]
  47              	.L4:
  48 000c 02       		.byte	(.L7-.L4)/2
  49 000d 06       		.byte	(.L6-.L4)/2
  50 000e 0A       		.byte	(.L5-.L4)/2
  51 000f 0E       		.byte	(.L3-.L4)/2
  52              		.p2align 1
  53              	.L7:
  38:ACE-ECF/Bsp/Src/bsp_servo.c ****     {
  39:ACE-ECF/Bsp/Src/bsp_servo.c ****         case 1:
  40:ACE-ECF/Bsp/Src/bsp_servo.c ****             HAL_TIM_PWM_Start(htim,TIM_CHANNEL_1);
  54              		.loc 1 40 13 is_stmt 1 view .LVU4
  55 0010 0021     		movs	r1, #0
  56              	.LVL2:
  57              		.loc 1 40 13 is_stmt 0 view .LVU5
  58 0012 FFF7FEFF 		bl	HAL_TIM_PWM_Start
  59              	.LVL3:
  41:ACE-ECF/Bsp/Src/bsp_servo.c ****         break;
  60              		.loc 1 41 9 is_stmt 1 view .LVU6
  61              	.L1:
  42:ACE-ECF/Bsp/Src/bsp_servo.c ****         
  43:ACE-ECF/Bsp/Src/bsp_servo.c ****         case 2:
  44:ACE-ECF/Bsp/Src/bsp_servo.c ****             HAL_TIM_PWM_Start(htim,TIM_CHANNEL_2);
  45:ACE-ECF/Bsp/Src/bsp_servo.c ****         break;
  46:ACE-ECF/Bsp/Src/bsp_servo.c ****         
  47:ACE-ECF/Bsp/Src/bsp_servo.c ****         case 3:
  48:ACE-ECF/Bsp/Src/bsp_servo.c ****             HAL_TIM_PWM_Start(htim,TIM_CHANNEL_3);
  49:ACE-ECF/Bsp/Src/bsp_servo.c ****         break;
  50:ACE-ECF/Bsp/Src/bsp_servo.c ****         
  51:ACE-ECF/Bsp/Src/bsp_servo.c ****         case 4:
  52:ACE-ECF/Bsp/Src/bsp_servo.c ****             HAL_TIM_PWM_Start(htim,TIM_CHANNEL_4);
  53:ACE-ECF/Bsp/Src/bsp_servo.c ****         break;
  54:ACE-ECF/Bsp/Src/bsp_servo.c ****             
ARM GAS  C:\Users\28212\AppData\Local\Temp\ccxglu5r.s 			page 3


  55:ACE-ECF/Bsp/Src/bsp_servo.c ****         default:
  56:ACE-ECF/Bsp/Src/bsp_servo.c ****         break;
  57:ACE-ECF/Bsp/Src/bsp_servo.c ****     }
  58:ACE-ECF/Bsp/Src/bsp_servo.c **** }
  62              		.loc 1 58 1 is_stmt 0 view .LVU7
  63 0016 08BD     		pop	{r3, pc}
  64              	.LVL4:
  65              	.L6:
  44:ACE-ECF/Bsp/Src/bsp_servo.c ****         break;
  66              		.loc 1 44 13 is_stmt 1 view .LVU8
  67 0018 0421     		movs	r1, #4
  68 001a FFF7FEFF 		bl	HAL_TIM_PWM_Start
  69              	.LVL5:
  45:ACE-ECF/Bsp/Src/bsp_servo.c ****         
  70              		.loc 1 45 9 view .LVU9
  71 001e FAE7     		b	.L1
  72              	.LVL6:
  73              	.L5:
  48:ACE-ECF/Bsp/Src/bsp_servo.c ****         break;
  74              		.loc 1 48 13 view .LVU10
  75 0020 0821     		movs	r1, #8
  76 0022 FFF7FEFF 		bl	HAL_TIM_PWM_Start
  77              	.LVL7:
  49:ACE-ECF/Bsp/Src/bsp_servo.c ****         
  78              		.loc 1 49 9 view .LVU11
  79 0026 F6E7     		b	.L1
  80              	.LVL8:
  81              	.L3:
  52:ACE-ECF/Bsp/Src/bsp_servo.c ****         break;
  82              		.loc 1 52 13 view .LVU12
  83 0028 0C21     		movs	r1, #12
  84 002a FFF7FEFF 		bl	HAL_TIM_PWM_Start
  85              	.LVL9:
  53:ACE-ECF/Bsp/Src/bsp_servo.c ****             
  86              		.loc 1 53 9 view .LVU13
  87              		.loc 1 58 1 is_stmt 0 view .LVU14
  88 002e F2E7     		b	.L1
  89              		.cfi_endproc
  90              	.LFE130:
  92              		.section	.text.Servo_SetAngle,"ax",%progbits
  93              		.align	1
  94              		.global	Servo_SetAngle
  95              		.syntax unified
  96              		.thumb
  97              		.thumb_func
  99              	Servo_SetAngle:
 100              	.LVL10:
 101              	.LFB131:
  59:ACE-ECF/Bsp/Src/bsp_servo.c **** 
  60:ACE-ECF/Bsp/Src/bsp_servo.c **** /**
  61:ACE-ECF/Bsp/Src/bsp_servo.c ****   * @brief  舵机设定旋转角度
  62:ACE-ECF/Bsp/Src/bsp_servo.c ****   * @param  htim TIM handle
  63:ACE-ECF/Bsp/Src/bsp_servo.c ****   *         demo：TIM1\TIM2...
  64:ACE-ECF/Bsp/Src/bsp_servo.c ****   * @param  __CHANNEL__ TIM Channels to be configured.
  65:ACE-ECF/Bsp/Src/bsp_servo.c ****   *          This parameter can be one of the following values:
  66:ACE-ECF/Bsp/Src/bsp_servo.c ****   *            @arg TIM_CHANNEL_1: TIM Channel 1 selected
  67:ACE-ECF/Bsp/Src/bsp_servo.c ****   *            @arg TIM_CHANNEL_2: TIM Channel 2 selected
ARM GAS  C:\Users\28212\AppData\Local\Temp\ccxglu5r.s 			page 4


  68:ACE-ECF/Bsp/Src/bsp_servo.c ****   *            @arg TIM_CHANNEL_3: TIM Channel 3 selected
  69:ACE-ECF/Bsp/Src/bsp_servo.c ****   *            @arg TIM_CHANNEL_4: TIM Channel 4 selected
  70:ACE-ECF/Bsp/Src/bsp_servo.c ****   * @param  angle
  71:ACE-ECF/Bsp/Src/bsp_servo.c ****   *          旋转角度设定
  72:ACE-ECF/Bsp/Src/bsp_servo.c ****   *           0~180度
  73:ACE-ECF/Bsp/Src/bsp_servo.c ****   * @retval 无
  74:ACE-ECF/Bsp/Src/bsp_servo.c ****   */
  75:ACE-ECF/Bsp/Src/bsp_servo.c **** 
  76:ACE-ECF/Bsp/Src/bsp_servo.c **** void Servo_SetAngle(TIM_HandleTypeDef* htim,uint32_t ch,float angle)
  77:ACE-ECF/Bsp/Src/bsp_servo.c **** {
 102              		.loc 1 77 1 is_stmt 1 view -0
 103              		.cfi_startproc
 104              		@ args = 0, pretend = 0, frame = 0
 105              		@ frame_needed = 0, uses_anonymous_args = 0
 106              		@ link register save eliminated.
  78:ACE-ECF/Bsp/Src/bsp_servo.c ****     static uint32_t temp;
 107              		.loc 1 78 5 view .LVU16
  79:ACE-ECF/Bsp/Src/bsp_servo.c ****      switch(ch)
 108              		.loc 1 79 6 view .LVU17
 109 0000 0139     		subs	r1, r1, #1
 110              	.LVL11:
 111              		.loc 1 79 6 is_stmt 0 view .LVU18
 112 0002 0329     		cmp	r1, #3
 113 0004 06D8     		bhi	.L10
 114 0006 DFE801F0 		tbb	[pc, r1]
 115              	.L12:
 116 000a 02       		.byte	(.L15-.L12)/2
 117 000b 1A       		.byte	(.L14-.L12)/2
 118 000c 1E       		.byte	(.L13-.L12)/2
 119 000d 22       		.byte	(.L11-.L12)/2
 120              		.p2align 1
 121              	.L15:
  80:ACE-ECF/Bsp/Src/bsp_servo.c ****     {
  81:ACE-ECF/Bsp/Src/bsp_servo.c ****         case 1:
  82:ACE-ECF/Bsp/Src/bsp_servo.c ****             temp=TIM_CHANNEL_1;
 122              		.loc 1 82 13 is_stmt 1 view .LVU19
 123              		.loc 1 82 17 is_stmt 0 view .LVU20
 124 000e 2F4B     		ldr	r3, .L22
 125 0010 0022     		movs	r2, #0
 126 0012 1A60     		str	r2, [r3]
  83:ACE-ECF/Bsp/Src/bsp_servo.c ****         break;
 127              		.loc 1 83 9 is_stmt 1 view .LVU21
 128              	.L10:
  84:ACE-ECF/Bsp/Src/bsp_servo.c ****         
  85:ACE-ECF/Bsp/Src/bsp_servo.c ****         case 2:
  86:ACE-ECF/Bsp/Src/bsp_servo.c ****             temp=TIM_CHANNEL_2;
  87:ACE-ECF/Bsp/Src/bsp_servo.c ****         break;
  88:ACE-ECF/Bsp/Src/bsp_servo.c ****         
  89:ACE-ECF/Bsp/Src/bsp_servo.c ****         case 3:
  90:ACE-ECF/Bsp/Src/bsp_servo.c ****             temp=TIM_CHANNEL_3;
  91:ACE-ECF/Bsp/Src/bsp_servo.c ****         break;
  92:ACE-ECF/Bsp/Src/bsp_servo.c ****         
  93:ACE-ECF/Bsp/Src/bsp_servo.c ****         case 4:
  94:ACE-ECF/Bsp/Src/bsp_servo.c ****             temp=TIM_CHANNEL_4;
  95:ACE-ECF/Bsp/Src/bsp_servo.c ****         break;
  96:ACE-ECF/Bsp/Src/bsp_servo.c ****             
  97:ACE-ECF/Bsp/Src/bsp_servo.c ****         default:
ARM GAS  C:\Users\28212\AppData\Local\Temp\ccxglu5r.s 			page 5


  98:ACE-ECF/Bsp/Src/bsp_servo.c ****         break;
  99:ACE-ECF/Bsp/Src/bsp_servo.c ****     }
 100:ACE-ECF/Bsp/Src/bsp_servo.c ****     __HAL_TIM_SET_COMPARE(htim,temp,((angle/270.0f)*2000+500));
 129              		.loc 1 100 5 view .LVU22
 130 0014 2D4B     		ldr	r3, .L22
 131 0016 1B68     		ldr	r3, [r3]
 132 0018 EBB9     		cbnz	r3, .L16
 133              		.loc 1 100 5 is_stmt 0 discriminator 1 view .LVU23
 134 001a 9FED2D7A 		vldr.32	s14, .L22+4
 135 001e C0EE077A 		vdiv.f32	s15, s0, s14
 136 0022 9FED2C7A 		vldr.32	s14, .L22+8
 137 0026 67EE877A 		vmul.f32	s15, s15, s14
 138 002a 9FED2B7A 		vldr.32	s14, .L22+12
 139 002e 77EE877A 		vadd.f32	s15, s15, s14
 140 0032 0368     		ldr	r3, [r0]
 141 0034 FCEEE77A 		vcvt.u32.f32	s15, s15
 142 0038 C3ED0D7A 		vstr.32	s15, [r3, #52]	@ int
 143 003c 7047     		bx	lr
 144              	.L14:
  86:ACE-ECF/Bsp/Src/bsp_servo.c ****         break;
 145              		.loc 1 86 13 is_stmt 1 view .LVU24
  86:ACE-ECF/Bsp/Src/bsp_servo.c ****         break;
 146              		.loc 1 86 17 is_stmt 0 view .LVU25
 147 003e 234B     		ldr	r3, .L22
 148 0040 0422     		movs	r2, #4
 149 0042 1A60     		str	r2, [r3]
  87:ACE-ECF/Bsp/Src/bsp_servo.c ****         
 150              		.loc 1 87 9 is_stmt 1 view .LVU26
 151 0044 E6E7     		b	.L10
 152              	.L13:
  90:ACE-ECF/Bsp/Src/bsp_servo.c ****         break;
 153              		.loc 1 90 13 view .LVU27
  90:ACE-ECF/Bsp/Src/bsp_servo.c ****         break;
 154              		.loc 1 90 17 is_stmt 0 view .LVU28
 155 0046 214B     		ldr	r3, .L22
 156 0048 0822     		movs	r2, #8
 157 004a 1A60     		str	r2, [r3]
  91:ACE-ECF/Bsp/Src/bsp_servo.c ****         
 158              		.loc 1 91 9 is_stmt 1 view .LVU29
 159 004c E2E7     		b	.L10
 160              	.L11:
  94:ACE-ECF/Bsp/Src/bsp_servo.c ****         break;
 161              		.loc 1 94 13 view .LVU30
  94:ACE-ECF/Bsp/Src/bsp_servo.c ****         break;
 162              		.loc 1 94 17 is_stmt 0 view .LVU31
 163 004e 1F4B     		ldr	r3, .L22
 164 0050 0C22     		movs	r2, #12
 165 0052 1A60     		str	r2, [r3]
  95:ACE-ECF/Bsp/Src/bsp_servo.c ****             
 166              		.loc 1 95 9 is_stmt 1 view .LVU32
 167 0054 DEE7     		b	.L10
 168              	.L16:
 169              		.loc 1 100 5 is_stmt 0 discriminator 2 view .LVU33
 170 0056 042B     		cmp	r3, #4
 171 0058 13D0     		beq	.L20
 172              		.loc 1 100 5 discriminator 4 view .LVU34
 173 005a 082B     		cmp	r3, #8
ARM GAS  C:\Users\28212\AppData\Local\Temp\ccxglu5r.s 			page 6


 174 005c 23D0     		beq	.L21
 175              		.loc 1 100 5 discriminator 7 view .LVU35
 176 005e 9FED1C7A 		vldr.32	s14, .L22+4
 177 0062 C0EE077A 		vdiv.f32	s15, s0, s14
 178 0066 9FED1B7A 		vldr.32	s14, .L22+8
 179 006a 67EE877A 		vmul.f32	s15, s15, s14
 180 006e 9FED1A7A 		vldr.32	s14, .L22+12
 181 0072 77EE877A 		vadd.f32	s15, s15, s14
 182 0076 0368     		ldr	r3, [r0]
 183 0078 FCEEE77A 		vcvt.u32.f32	s15, s15
 184 007c C3ED107A 		vstr.32	s15, [r3, #64]	@ int
 101:ACE-ECF/Bsp/Src/bsp_servo.c **** }
 185              		.loc 1 101 1 discriminator 7 view .LVU36
 186 0080 7047     		bx	lr
 187              	.L20:
 100:ACE-ECF/Bsp/Src/bsp_servo.c **** }
 188              		.loc 1 100 5 discriminator 3 view .LVU37
 189 0082 9FED137A 		vldr.32	s14, .L22+4
 190 0086 C0EE077A 		vdiv.f32	s15, s0, s14
 191 008a 9FED127A 		vldr.32	s14, .L22+8
 192 008e 67EE877A 		vmul.f32	s15, s15, s14
 193 0092 9FED117A 		vldr.32	s14, .L22+12
 194 0096 77EE877A 		vadd.f32	s15, s15, s14
 195 009a 0368     		ldr	r3, [r0]
 196 009c FCEEE77A 		vcvt.u32.f32	s15, s15
 197 00a0 C3ED0E7A 		vstr.32	s15, [r3, #56]	@ int
 198 00a4 7047     		bx	lr
 199              	.L21:
 100:ACE-ECF/Bsp/Src/bsp_servo.c **** }
 200              		.loc 1 100 5 discriminator 6 view .LVU38
 201 00a6 9FED0A7A 		vldr.32	s14, .L22+4
 202 00aa C0EE077A 		vdiv.f32	s15, s0, s14
 203 00ae 9FED097A 		vldr.32	s14, .L22+8
 204 00b2 67EE877A 		vmul.f32	s15, s15, s14
 205 00b6 9FED087A 		vldr.32	s14, .L22+12
 206 00ba 77EE877A 		vadd.f32	s15, s15, s14
 207 00be 0368     		ldr	r3, [r0]
 208 00c0 FCEEE77A 		vcvt.u32.f32	s15, s15
 209 00c4 C3ED0F7A 		vstr.32	s15, [r3, #60]	@ int
 210 00c8 7047     		bx	lr
 211              	.L23:
 212 00ca 00BF     		.align	2
 213              	.L22:
 214 00cc 00000000 		.word	.LANCHOR0
 215 00d0 00008743 		.word	1132920832
 216 00d4 0000FA44 		.word	1157234688
 217 00d8 0000FA43 		.word	1140457472
 218              		.cfi_endproc
 219              	.LFE131:
 221              		.section	.bss.temp.0,"aw",%nobits
 222              		.align	2
 223              		.set	.LANCHOR0,. + 0
 226              	temp.0:
 227 0000 00000000 		.space	4
 228              		.text
 229              	.Letext0:
 230              		.file 2 "d:\\gcc-arm-none-eabi-10.3-2021.10\\arm-none-eabi\\include\\machine\\_default_types.h"
ARM GAS  C:\Users\28212\AppData\Local\Temp\ccxglu5r.s 			page 7


 231              		.file 3 "d:\\gcc-arm-none-eabi-10.3-2021.10\\arm-none-eabi\\include\\sys\\_stdint.h"
 232              		.file 4 "Drivers/CMSIS/Device/ST/STM32F4xx/Include/stm32f407xx.h"
 233              		.file 5 "Drivers/STM32F4xx_HAL_Driver/Inc/stm32f4xx_hal_def.h"
 234              		.file 6 "Drivers/STM32F4xx_HAL_Driver/Inc/stm32f4xx_hal_dma.h"
 235              		.file 7 "Drivers/STM32F4xx_HAL_Driver/Inc/stm32f4xx_hal_tim.h"
ARM GAS  C:\Users\28212\AppData\Local\Temp\ccxglu5r.s 			page 8


DEFINED SYMBOLS
                            *ABS*:00000000 bsp_servo.c
C:\Users\28212\AppData\Local\Temp\ccxglu5r.s:20     .text.Servo_Init:00000000 $t
C:\Users\28212\AppData\Local\Temp\ccxglu5r.s:26     .text.Servo_Init:00000000 Servo_Init
C:\Users\28212\AppData\Local\Temp\ccxglu5r.s:48     .text.Servo_Init:0000000c $d
C:\Users\28212\AppData\Local\Temp\ccxglu5r.s:52     .text.Servo_Init:00000010 $t
C:\Users\28212\AppData\Local\Temp\ccxglu5r.s:93     .text.Servo_SetAngle:00000000 $t
C:\Users\28212\AppData\Local\Temp\ccxglu5r.s:99     .text.Servo_SetAngle:00000000 Servo_SetAngle
C:\Users\28212\AppData\Local\Temp\ccxglu5r.s:116    .text.Servo_SetAngle:0000000a $d
C:\Users\28212\AppData\Local\Temp\ccxglu5r.s:120    .text.Servo_SetAngle:0000000e $t
C:\Users\28212\AppData\Local\Temp\ccxglu5r.s:214    .text.Servo_SetAngle:000000cc $d
C:\Users\28212\AppData\Local\Temp\ccxglu5r.s:222    .bss.temp.0:00000000 $d
C:\Users\28212\AppData\Local\Temp\ccxglu5r.s:226    .bss.temp.0:00000000 temp.0

UNDEFINED SYMBOLS
HAL_TIM_PWM_Start
