ARM GAS  C:\Users\28212\AppData\Local\Temp\ccAB46Z4.s 			page 1


   1              		.cpu cortex-m4
   2              		.arch armv7e-m
   3              		.fpu fpv4-sp-d16
   4              		.eabi_attribute 27, 1
   5              		.eabi_attribute 28, 1
   6              		.eabi_attribute 20, 1
   7              		.eabi_attribute 21, 1
   8              		.eabi_attribute 23, 3
   9              		.eabi_attribute 24, 1
  10              		.eabi_attribute 25, 1
  11              		.eabi_attribute 26, 1
  12              		.eabi_attribute 30, 1
  13              		.eabi_attribute 34, 1
  14              		.eabi_attribute 18, 4
  15              		.file	"fifo.c"
  16              		.text
  17              	.Ltext0:
  18              		.cfi_sections	.debug_frame
  19              		.section	.text.fifo_s_destroy,"ax",%progbits
  20              		.align	1
  21              		.global	fifo_s_destroy
  22              		.syntax unified
  23              		.thumb
  24              		.thumb_func
  26              	fifo_s_destroy:
  27              	.LVL0:
  28              	.LFB160:
  29              		.file 1 "ACE-ECF/Algorithm/src/fifo.c"
   1:ACE-ECF/Algorithm/src/fifo.c **** //******************************************************************************************
   2:ACE-ECF/Algorithm/src/fifo.c **** //!
   3:ACE-ECF/Algorithm/src/fifo.c **** //! \file   FIFO.c
   4:ACE-ECF/Algorithm/src/fifo.c **** //! \brief  Genernal FIFO Model Interface.
   5:ACE-ECF/Algorithm/src/fifo.c **** //!         You can use uniform FIFO Model to manager Any type of data element.
   6:ACE-ECF/Algorithm/src/fifo.c **** //! \author cedar
   7:ACE-ECF/Algorithm/src/fifo.c **** //! \changed damom.li
   8:ACE-ECF/Algorithm/src/fifo.c **** //! \changed sky.huang
   9:ACE-ECF/Algorithm/src/fifo.c **** //! \date   2016-11-03//! \date   2013-12-16
  10:ACE-ECF/Algorithm/src/fifo.c **** //! \email  xuesong5825718@gmail.com
  11:ACE-ECF/Algorithm/src/fifo.c **** //!
  12:ACE-ECF/Algorithm/src/fifo.c **** //! \version: 1.1 add fifo_s_gets_noprotect function
  13:ACE-ECF/Algorithm/src/fifo.c **** //!
  14:ACE-ECF/Algorithm/src/fifo.c **** //! Copyright (c) 2013 Cedar MIT License
  15:ACE-ECF/Algorithm/src/fifo.c **** //!
  16:ACE-ECF/Algorithm/src/fifo.c **** //! Permission is hereby granted, free of charge, to any person obtaining a copy
  17:ACE-ECF/Algorithm/src/fifo.c **** //! of this software and associated documentation files (the "Software"), to deal
  18:ACE-ECF/Algorithm/src/fifo.c **** //! in the Software without restriction, including without limitation the rights to
  19:ACE-ECF/Algorithm/src/fifo.c **** //! use, copy, modify, merge, publish, distribute, sublicense, and/or sell copies of
  20:ACE-ECF/Algorithm/src/fifo.c **** //! the Software, and to permit persons to whom the Software is furnished to do so,
  21:ACE-ECF/Algorithm/src/fifo.c **** //! subject to the following conditions:
  22:ACE-ECF/Algorithm/src/fifo.c **** //!
  23:ACE-ECF/Algorithm/src/fifo.c **** //! The above copyright notice and this permission notice shall be included in all
  24:ACE-ECF/Algorithm/src/fifo.c **** //! copies or substantial portions of the Software.
  25:ACE-ECF/Algorithm/src/fifo.c **** //!
  26:ACE-ECF/Algorithm/src/fifo.c **** //! THE SOFTWARE IS PROVIDED "AS IS", WITHOUT WARRANTY OF ANY KIND, EXPRESS OR
  27:ACE-ECF/Algorithm/src/fifo.c **** //! IMPLIED, INCLUDING BUT NOT LIMITED TO THE WARRANTIES OF MERCHANTABILITY,
  28:ACE-ECF/Algorithm/src/fifo.c **** //! FITNESS FOR A PARTICULAR PURPOSE AND NONINFRINGEMENT. IN NO EVENT SHALL THE
  29:ACE-ECF/Algorithm/src/fifo.c **** //! AUTHORS OR COPYRIGHT HOLDERS BE LIABLE FOR ANY CLAIM, DAMAGES OR OTHER
ARM GAS  C:\Users\28212\AppData\Local\Temp\ccAB46Z4.s 			page 2


  30:ACE-ECF/Algorithm/src/fifo.c **** //! LIABILITY, WHETHER IN AN ACTION OF CONTRACT, TORT OR OTHERWISE, ARISING FROM,
  31:ACE-ECF/Algorithm/src/fifo.c **** //! OUT OF OR IN CONNECTION WITH THE SOFTWARE OR THE USE OR OTHER DEALINGS
  32:ACE-ECF/Algorithm/src/fifo.c **** //! IN THE SOFTWARE.
  33:ACE-ECF/Algorithm/src/fifo.c **** ///
  34:ACE-ECF/Algorithm/src/fifo.c **** //******************************************************************************************
  35:ACE-ECF/Algorithm/src/fifo.c **** #include "fifo.h"
  36:ACE-ECF/Algorithm/src/fifo.c **** 
  37:ACE-ECF/Algorithm/src/fifo.c **** //******************************************************************************************
  38:ACE-ECF/Algorithm/src/fifo.c **** //!                     ASSERT MACRO
  39:ACE-ECF/Algorithm/src/fifo.c **** //******************************************************************************************
  40:ACE-ECF/Algorithm/src/fifo.c **** #ifndef ASSERT
  41:ACE-ECF/Algorithm/src/fifo.c **** 
  42:ACE-ECF/Algorithm/src/fifo.c **** //TODO:这里不知道为什么assert是开着的
  43:ACE-ECF/Algorithm/src/fifo.c **** #ifdef FIFO_NDEBUG
  44:ACE-ECF/Algorithm/src/fifo.c **** #define ASSERT(x)
  45:ACE-ECF/Algorithm/src/fifo.c **** #else
  46:ACE-ECF/Algorithm/src/fifo.c **** #define ASSERT(x)                                           \
  47:ACE-ECF/Algorithm/src/fifo.c ****     do                                                      \
  48:ACE-ECF/Algorithm/src/fifo.c ****     {                                                       \
  49:ACE-ECF/Algorithm/src/fifo.c ****         if (!(x))                                           \
  50:ACE-ECF/Algorithm/src/fifo.c ****             printf("[assert]: %s, %d", __FILE__, __LINE__); \
  51:ACE-ECF/Algorithm/src/fifo.c ****         while (!(x))                                        \
  52:ACE-ECF/Algorithm/src/fifo.c ****             ;                                               \
  53:ACE-ECF/Algorithm/src/fifo.c ****     } while (0)
  54:ACE-ECF/Algorithm/src/fifo.c **** #endif
  55:ACE-ECF/Algorithm/src/fifo.c **** 
  56:ACE-ECF/Algorithm/src/fifo.c **** #endif // ASSERT
  57:ACE-ECF/Algorithm/src/fifo.c **** 
  58:ACE-ECF/Algorithm/src/fifo.c **** #ifdef USE_DYNAMIC_MEMORY
  59:ACE-ECF/Algorithm/src/fifo.c **** //******************************************************************************************
  60:ACE-ECF/Algorithm/src/fifo.c **** //
  61:ACE-ECF/Algorithm/src/fifo.c **** //! \brief  Create An New FIFO Instance(in Single Mode).
  62:ACE-ECF/Algorithm/src/fifo.c **** //! This function allocate enought room for N blocks fifo elements, then return the pointer
  63:ACE-ECF/Algorithm/src/fifo.c **** //! of FIFO.
  64:ACE-ECF/Algorithm/src/fifo.c **** //!
  65:ACE-ECF/Algorithm/src/fifo.c **** //! \param  [in] uint_cnt is count of fifo elements.
  66:ACE-ECF/Algorithm/src/fifo.c **** //! \retval The Pointer of FIFO instance, return NULL is failure to allocate memory.
  67:ACE-ECF/Algorithm/src/fifo.c **** //!
  68:ACE-ECF/Algorithm/src/fifo.c **** //! \note   -# You must enable USE_MEMORY_ALLOC macro and ensure your system have <stdlib.h>
  69:ACE-ECF/Algorithm/src/fifo.c **** //!            Header file before use this function.
  70:ACE-ECF/Algorithm/src/fifo.c **** //! \note   -# Functions FIFO_Create and FIFO_Destory must be used in pairs.
  71:ACE-ECF/Algorithm/src/fifo.c **** //!
  72:ACE-ECF/Algorithm/src/fifo.c **** //******************************************************************************************
  73:ACE-ECF/Algorithm/src/fifo.c **** fifo_s_t *fifo_s_create(int uint_cnt)
  74:ACE-ECF/Algorithm/src/fifo.c **** {
  75:ACE-ECF/Algorithm/src/fifo.c ****     fifo_s_t *p_fifo = NULL;  //!< FIFO Pointer
  76:ACE-ECF/Algorithm/src/fifo.c ****     char *p_base_addr = NULL; //!< Memory Base Address
  77:ACE-ECF/Algorithm/src/fifo.c **** 
  78:ACE-ECF/Algorithm/src/fifo.c ****     //! Check input parameters.
  79:ACE-ECF/Algorithm/src/fifo.c ****     ASSERT(uint_cnt);
  80:ACE-ECF/Algorithm/src/fifo.c **** 
  81:ACE-ECF/Algorithm/src/fifo.c ****     //! Allocate Memory for pointer of new FIFO Control Block
  82:ACE-ECF/Algorithm/src/fifo.c ****     p_fifo = (fifo_s_t *)malloc(sizeof(fifo_s_t));
  83:ACE-ECF/Algorithm/src/fifo.c ****     if (NULL == p_fifo)
  84:ACE-ECF/Algorithm/src/fifo.c ****     {
  85:ACE-ECF/Algorithm/src/fifo.c ****         //! Allocate Failure, exit now
  86:ACE-ECF/Algorithm/src/fifo.c ****         return (NULL);
ARM GAS  C:\Users\28212\AppData\Local\Temp\ccAB46Z4.s 			page 3


  87:ACE-ECF/Algorithm/src/fifo.c ****     }
  88:ACE-ECF/Algorithm/src/fifo.c ****     //! Allocate Memory for pointer of new FIFO
  89:ACE-ECF/Algorithm/src/fifo.c ****     p_base_addr = malloc(uint_cnt);
  90:ACE-ECF/Algorithm/src/fifo.c ****     if (NULL == p_base_addr)
  91:ACE-ECF/Algorithm/src/fifo.c ****     {
  92:ACE-ECF/Algorithm/src/fifo.c ****         //! Allocate Failure, exit now
  93:ACE-ECF/Algorithm/src/fifo.c ****         free(p_fifo);
  94:ACE-ECF/Algorithm/src/fifo.c ****         return (NULL);
  95:ACE-ECF/Algorithm/src/fifo.c ****     }
  96:ACE-ECF/Algorithm/src/fifo.c ****     //! Initialize General FIFO Module
  97:ACE-ECF/Algorithm/src/fifo.c ****     fifo_s_init(p_fifo, p_base_addr, uint_cnt);
  98:ACE-ECF/Algorithm/src/fifo.c **** 
  99:ACE-ECF/Algorithm/src/fifo.c ****     return (p_fifo);
 100:ACE-ECF/Algorithm/src/fifo.c **** }
 101:ACE-ECF/Algorithm/src/fifo.c **** 
 102:ACE-ECF/Algorithm/src/fifo.c **** //******************************************************************************************
 103:ACE-ECF/Algorithm/src/fifo.c **** //
 104:ACE-ECF/Algorithm/src/fifo.c **** //! \brief  Destory FIFO Instance(in Single Mode).
 105:ACE-ECF/Algorithm/src/fifo.c **** //!  This function release memory, then reinit the FIFO struct.
 106:ACE-ECF/Algorithm/src/fifo.c **** //!
 107:ACE-ECF/Algorithm/src/fifo.c **** //! \param  [in] p_fifo is the pointer of FIFO instance
 108:ACE-ECF/Algorithm/src/fifo.c **** //! \retval None.
 109:ACE-ECF/Algorithm/src/fifo.c **** //!
 110:ACE-ECF/Algorithm/src/fifo.c **** //! \note   -# You must enable USE_MEMORY_ALLOC macro and ensure your system have <stdlib.h>
 111:ACE-ECF/Algorithm/src/fifo.c **** //!            Header file before use this function.
 112:ACE-ECF/Algorithm/src/fifo.c **** //
 113:ACE-ECF/Algorithm/src/fifo.c **** //******************************************************************************************
 114:ACE-ECF/Algorithm/src/fifo.c **** void fifo_s_destroy(fifo_s_t *p_fifo)
 115:ACE-ECF/Algorithm/src/fifo.c **** {
  30              		.loc 1 115 1 view -0
  31              		.cfi_startproc
  32              		@ args = 0, pretend = 0, frame = 0
  33              		@ frame_needed = 0, uses_anonymous_args = 0
  34              		.loc 1 115 1 is_stmt 0 view .LVU1
  35 0000 10B5     		push	{r4, lr}
  36              	.LCFI0:
  37              		.cfi_def_cfa_offset 8
  38              		.cfi_offset 4, -8
  39              		.cfi_offset 14, -4
  40 0002 0446     		mov	r4, r0
 116:ACE-ECF/Algorithm/src/fifo.c ****     //! Check input parameters.
 117:ACE-ECF/Algorithm/src/fifo.c ****     ASSERT(p_fifo);
  41              		.loc 1 117 19 is_stmt 1 view .LVU2
 118:ACE-ECF/Algorithm/src/fifo.c ****     ASSERT(p_fifo->p_start_addr);
  42              		.loc 1 118 33 view .LVU3
 119:ACE-ECF/Algorithm/src/fifo.c **** 
 120:ACE-ECF/Algorithm/src/fifo.c ****     //! Free FIFO memory
 121:ACE-ECF/Algorithm/src/fifo.c ****     free(p_fifo->p_start_addr);
  43              		.loc 1 121 5 view .LVU4
  44 0004 0068     		ldr	r0, [r0]
  45              	.LVL1:
  46              		.loc 1 121 5 is_stmt 0 view .LVU5
  47 0006 FFF7FEFF 		bl	free
  48              	.LVL2:
 122:ACE-ECF/Algorithm/src/fifo.c ****     //! Free FIFO Control Block memory
 123:ACE-ECF/Algorithm/src/fifo.c ****     free(p_fifo);
  49              		.loc 1 123 5 is_stmt 1 view .LVU6
ARM GAS  C:\Users\28212\AppData\Local\Temp\ccAB46Z4.s 			page 4


  50 000a 2046     		mov	r0, r4
  51 000c FFF7FEFF 		bl	free
  52              	.LVL3:
 124:ACE-ECF/Algorithm/src/fifo.c **** 
 125:ACE-ECF/Algorithm/src/fifo.c ****     return; //!< Success
  53              		.loc 1 125 5 view .LVU7
 126:ACE-ECF/Algorithm/src/fifo.c **** }
  54              		.loc 1 126 1 is_stmt 0 view .LVU8
  55 0010 10BD     		pop	{r4, pc}
  56              		.loc 1 126 1 view .LVU9
  57              		.cfi_endproc
  58              	.LFE160:
  60              		.section	.text.fifo_s_init,"ax",%progbits
  61              		.align	1
  62              		.global	fifo_s_init
  63              		.syntax unified
  64              		.thumb
  65              		.thumb_func
  67              	fifo_s_init:
  68              	.LVL4:
  69              	.LFB161:
 127:ACE-ECF/Algorithm/src/fifo.c **** 
 128:ACE-ECF/Algorithm/src/fifo.c **** #endif // USE_DYNAMIC_MEMORY
 129:ACE-ECF/Algorithm/src/fifo.c **** 
 130:ACE-ECF/Algorithm/src/fifo.c **** //******************************************************************************************
 131:ACE-ECF/Algorithm/src/fifo.c **** //
 132:ACE-ECF/Algorithm/src/fifo.c **** //! \brief  Initialize an static FIFO struct(in single mode).
 133:ACE-ECF/Algorithm/src/fifo.c **** //!
 134:ACE-ECF/Algorithm/src/fifo.c **** //! \param  [in] p_fifo is the pointer of valid FIFO instance.
 135:ACE-ECF/Algorithm/src/fifo.c **** //! \param  [in] p_base_addr is the base address of pre-allocate memory, such as array.
 136:ACE-ECF/Algorithm/src/fifo.c **** //! \param  [in] uint_cnt is count of fifo elements.
 137:ACE-ECF/Algorithm/src/fifo.c **** //! \retval 0 if initialize successfully, otherwise return -1.
 138:ACE-ECF/Algorithm/src/fifo.c **** //
 139:ACE-ECF/Algorithm/src/fifo.c **** //******************************************************************************************
 140:ACE-ECF/Algorithm/src/fifo.c **** int fifo_s_init(fifo_s_t *p_fifo, void *p_base_addr, int uint_cnt)
 141:ACE-ECF/Algorithm/src/fifo.c **** {
  70              		.loc 1 141 1 is_stmt 1 view -0
  71              		.cfi_startproc
  72              		@ args = 0, pretend = 0, frame = 0
  73              		@ frame_needed = 0, uses_anonymous_args = 0
  74              		@ link register save eliminated.
  75              		.loc 1 141 1 is_stmt 0 view .LVU11
  76 0000 0346     		mov	r3, r0
 142:ACE-ECF/Algorithm/src/fifo.c ****     //! Check input parameters.
 143:ACE-ECF/Algorithm/src/fifo.c ****     ASSERT(p_fifo);
  77              		.loc 1 143 19 is_stmt 1 view .LVU12
 144:ACE-ECF/Algorithm/src/fifo.c ****     ASSERT(p_base_addr);
  78              		.loc 1 144 24 view .LVU13
 145:ACE-ECF/Algorithm/src/fifo.c ****     ASSERT(uint_cnt);
  79              		.loc 1 145 21 view .LVU14
 146:ACE-ECF/Algorithm/src/fifo.c **** 
 147:ACE-ECF/Algorithm/src/fifo.c ****     //! Initialize FIFO Control Block.
 148:ACE-ECF/Algorithm/src/fifo.c ****     p_fifo->p_start_addr = (char *)p_base_addr;
  80              		.loc 1 148 5 view .LVU15
  81              		.loc 1 148 26 is_stmt 0 view .LVU16
  82 0002 0160     		str	r1, [r0]
 149:ACE-ECF/Algorithm/src/fifo.c ****     p_fifo->p_end_addr = (char *)p_base_addr + uint_cnt - 1;
ARM GAS  C:\Users\28212\AppData\Local\Temp\ccAB46Z4.s 			page 5


  83              		.loc 1 149 5 is_stmt 1 view .LVU17
  84              		.loc 1 149 57 is_stmt 0 view .LVU18
  85 0004 501E     		subs	r0, r2, #1
  86              	.LVL5:
  87              		.loc 1 149 57 view .LVU19
  88 0006 0844     		add	r0, r0, r1
  89              		.loc 1 149 24 view .LVU20
  90 0008 5860     		str	r0, [r3, #4]
 150:ACE-ECF/Algorithm/src/fifo.c ****     p_fifo->free_num = uint_cnt;
  91              		.loc 1 150 5 is_stmt 1 view .LVU21
  92              		.loc 1 150 22 is_stmt 0 view .LVU22
  93 000a 9A60     		str	r2, [r3, #8]
 151:ACE-ECF/Algorithm/src/fifo.c ****     p_fifo->used_num = 0;
  94              		.loc 1 151 5 is_stmt 1 view .LVU23
  95              		.loc 1 151 22 is_stmt 0 view .LVU24
  96 000c 0020     		movs	r0, #0
  97 000e D860     		str	r0, [r3, #12]
 152:ACE-ECF/Algorithm/src/fifo.c ****     p_fifo->p_read_addr = (char *)p_base_addr;
  98              		.loc 1 152 5 is_stmt 1 view .LVU25
  99              		.loc 1 152 25 is_stmt 0 view .LVU26
 100 0010 1961     		str	r1, [r3, #16]
 153:ACE-ECF/Algorithm/src/fifo.c ****     p_fifo->p_write_addr = (char *)p_base_addr;
 101              		.loc 1 153 5 is_stmt 1 view .LVU27
 102              		.loc 1 153 26 is_stmt 0 view .LVU28
 103 0012 5961     		str	r1, [r3, #20]
 154:ACE-ECF/Algorithm/src/fifo.c **** 
 155:ACE-ECF/Algorithm/src/fifo.c ****     //! Inint mutex for new FIFO
 156:ACE-ECF/Algorithm/src/fifo.c ****     MUTEX_INIT(p_fifo->mutex);
 104              		.loc 1 156 5 is_stmt 1 view .LVU29
 105              		.loc 1 156 5 view .LVU30
 106 0014 9861     		str	r0, [r3, #24]
 107              		.loc 1 156 5 view .LVU31
 157:ACE-ECF/Algorithm/src/fifo.c **** 
 158:ACE-ECF/Algorithm/src/fifo.c ****     return (0);
 108              		.loc 1 158 5 view .LVU32
 159:ACE-ECF/Algorithm/src/fifo.c **** }
 109              		.loc 1 159 1 is_stmt 0 view .LVU33
 110 0016 7047     		bx	lr
 111              		.cfi_endproc
 112              	.LFE161:
 114              		.section	.text.fifo_s_create,"ax",%progbits
 115              		.align	1
 116              		.global	fifo_s_create
 117              		.syntax unified
 118              		.thumb
 119              		.thumb_func
 121              	fifo_s_create:
 122              	.LVL6:
 123              	.LFB159:
  74:ACE-ECF/Algorithm/src/fifo.c ****     fifo_s_t *p_fifo = NULL;  //!< FIFO Pointer
 124              		.loc 1 74 1 is_stmt 1 view -0
 125              		.cfi_startproc
 126              		@ args = 0, pretend = 0, frame = 0
 127              		@ frame_needed = 0, uses_anonymous_args = 0
  74:ACE-ECF/Algorithm/src/fifo.c ****     fifo_s_t *p_fifo = NULL;  //!< FIFO Pointer
 128              		.loc 1 74 1 is_stmt 0 view .LVU35
 129 0000 70B5     		push	{r4, r5, r6, lr}
ARM GAS  C:\Users\28212\AppData\Local\Temp\ccAB46Z4.s 			page 6


 130              	.LCFI1:
 131              		.cfi_def_cfa_offset 16
 132              		.cfi_offset 4, -16
 133              		.cfi_offset 5, -12
 134              		.cfi_offset 6, -8
 135              		.cfi_offset 14, -4
 136 0002 0446     		mov	r4, r0
  75:ACE-ECF/Algorithm/src/fifo.c ****     char *p_base_addr = NULL; //!< Memory Base Address
 137              		.loc 1 75 5 is_stmt 1 view .LVU36
 138              	.LVL7:
  76:ACE-ECF/Algorithm/src/fifo.c **** 
 139              		.loc 1 76 5 view .LVU37
  79:ACE-ECF/Algorithm/src/fifo.c **** 
 140              		.loc 1 79 21 view .LVU38
  82:ACE-ECF/Algorithm/src/fifo.c ****     if (NULL == p_fifo)
 141              		.loc 1 82 5 view .LVU39
  82:ACE-ECF/Algorithm/src/fifo.c ****     if (NULL == p_fifo)
 142              		.loc 1 82 26 is_stmt 0 view .LVU40
 143 0004 1C20     		movs	r0, #28
 144              	.LVL8:
  82:ACE-ECF/Algorithm/src/fifo.c ****     if (NULL == p_fifo)
 145              		.loc 1 82 26 view .LVU41
 146 0006 FFF7FEFF 		bl	malloc
 147              	.LVL9:
  83:ACE-ECF/Algorithm/src/fifo.c ****     {
 148              		.loc 1 83 5 is_stmt 1 view .LVU42
  83:ACE-ECF/Algorithm/src/fifo.c ****     {
 149              		.loc 1 83 8 is_stmt 0 view .LVU43
 150 000a 0546     		mov	r5, r0
 151 000c 48B1     		cbz	r0, .L4
  89:ACE-ECF/Algorithm/src/fifo.c ****     if (NULL == p_base_addr)
 152              		.loc 1 89 5 is_stmt 1 view .LVU44
  89:ACE-ECF/Algorithm/src/fifo.c ****     if (NULL == p_base_addr)
 153              		.loc 1 89 19 is_stmt 0 view .LVU45
 154 000e 2046     		mov	r0, r4
 155              	.LVL10:
  89:ACE-ECF/Algorithm/src/fifo.c ****     if (NULL == p_base_addr)
 156              		.loc 1 89 19 view .LVU46
 157 0010 FFF7FEFF 		bl	malloc
 158              	.LVL11:
  90:ACE-ECF/Algorithm/src/fifo.c ****     {
 159              		.loc 1 90 5 is_stmt 1 view .LVU47
  90:ACE-ECF/Algorithm/src/fifo.c ****     {
 160              		.loc 1 90 8 is_stmt 0 view .LVU48
 161 0014 0646     		mov	r6, r0
 162 0016 30B1     		cbz	r0, .L8
  97:ACE-ECF/Algorithm/src/fifo.c **** 
 163              		.loc 1 97 5 is_stmt 1 view .LVU49
 164 0018 2246     		mov	r2, r4
 165 001a 0146     		mov	r1, r0
 166 001c 2846     		mov	r0, r5
 167              	.LVL12:
  97:ACE-ECF/Algorithm/src/fifo.c **** 
 168              		.loc 1 97 5 is_stmt 0 view .LVU50
 169 001e FFF7FEFF 		bl	fifo_s_init
 170              	.LVL13:
  99:ACE-ECF/Algorithm/src/fifo.c **** }
ARM GAS  C:\Users\28212\AppData\Local\Temp\ccAB46Z4.s 			page 7


 171              		.loc 1 99 5 is_stmt 1 view .LVU51
 172              	.L4:
 100:ACE-ECF/Algorithm/src/fifo.c **** 
 173              		.loc 1 100 1 is_stmt 0 view .LVU52
 174 0022 2846     		mov	r0, r5
 175 0024 70BD     		pop	{r4, r5, r6, pc}
 176              	.LVL14:
 177              	.L8:
  93:ACE-ECF/Algorithm/src/fifo.c ****         return (NULL);
 178              		.loc 1 93 9 is_stmt 1 view .LVU53
 179 0026 2846     		mov	r0, r5
 180              	.LVL15:
  93:ACE-ECF/Algorithm/src/fifo.c ****         return (NULL);
 181              		.loc 1 93 9 is_stmt 0 view .LVU54
 182 0028 FFF7FEFF 		bl	free
 183              	.LVL16:
  94:ACE-ECF/Algorithm/src/fifo.c ****     }
 184              		.loc 1 94 9 is_stmt 1 view .LVU55
  94:ACE-ECF/Algorithm/src/fifo.c ****     }
 185              		.loc 1 94 16 is_stmt 0 view .LVU56
 186 002c 3546     		mov	r5, r6
 187              	.LVL17:
  94:ACE-ECF/Algorithm/src/fifo.c ****     }
 188              		.loc 1 94 16 view .LVU57
 189 002e F8E7     		b	.L4
 190              		.cfi_endproc
 191              	.LFE159:
 193              		.section	.text.fifo_s_put,"ax",%progbits
 194              		.align	1
 195              		.global	fifo_s_put
 196              		.syntax unified
 197              		.thumb
 198              		.thumb_func
 200              	fifo_s_put:
 201              	.LVL18:
 202              	.LFB162:
 160:ACE-ECF/Algorithm/src/fifo.c **** 
 161:ACE-ECF/Algorithm/src/fifo.c **** //******************************************************************************************
 162:ACE-ECF/Algorithm/src/fifo.c **** //
 163:ACE-ECF/Algorithm/src/fifo.c **** //! \brief  Put an element into FIFO(in single mode).
 164:ACE-ECF/Algorithm/src/fifo.c **** //!
 165:ACE-ECF/Algorithm/src/fifo.c **** //! \param  [in]  p_fifo is the pointer of valid FIFO.
 166:ACE-ECF/Algorithm/src/fifo.c **** //! \param  [in]  element is the data element you want to put
 167:ACE-ECF/Algorithm/src/fifo.c **** //!
 168:ACE-ECF/Algorithm/src/fifo.c **** //! \retval 0 if operate successfully, otherwise return -1.
 169:ACE-ECF/Algorithm/src/fifo.c **** //
 170:ACE-ECF/Algorithm/src/fifo.c **** //******************************************************************************************
 171:ACE-ECF/Algorithm/src/fifo.c **** int fifo_s_put(fifo_s_t *p_fifo, char element)
 172:ACE-ECF/Algorithm/src/fifo.c **** {
 203              		.loc 1 172 1 is_stmt 1 view -0
 204              		.cfi_startproc
 205              		@ args = 0, pretend = 0, frame = 0
 206              		@ frame_needed = 0, uses_anonymous_args = 0
 207              		@ link register save eliminated.
 173:ACE-ECF/Algorithm/src/fifo.c ****     //! Check input parameters.
 174:ACE-ECF/Algorithm/src/fifo.c ****     ASSERT(p_fifo);
 208              		.loc 1 174 19 view .LVU59
ARM GAS  C:\Users\28212\AppData\Local\Temp\ccAB46Z4.s 			page 8


 175:ACE-ECF/Algorithm/src/fifo.c **** 
 176:ACE-ECF/Algorithm/src/fifo.c ****     if (0 == p_fifo->free_num)
 209              		.loc 1 176 5 view .LVU60
 210              		.loc 1 176 20 is_stmt 0 view .LVU61
 211 0000 8368     		ldr	r3, [r0, #8]
 212              		.loc 1 176 8 view .LVU62
 213 0002 D3B1     		cbz	r3, .L13
 177:ACE-ECF/Algorithm/src/fifo.c ****     {
 178:ACE-ECF/Algorithm/src/fifo.c ****         //! Error, FIFO is full!
 179:ACE-ECF/Algorithm/src/fifo.c ****         return (-1);
 180:ACE-ECF/Algorithm/src/fifo.c ****     }
 181:ACE-ECF/Algorithm/src/fifo.c **** 
 182:ACE-ECF/Algorithm/src/fifo.c ****     MUTEX_LOCK(p_fifo->mutex);
 214              		.loc 1 182 5 is_stmt 1 view .LVU63
 215              		.loc 1 182 5 view .LVU64
 216              	.LBB58:
 217              	.LBI58:
 218              		.file 2 "Drivers/CMSIS/Include/cmsis_gcc.h"
   1:Drivers/CMSIS/Include/cmsis_gcc.h **** /**************************************************************************//**
   2:Drivers/CMSIS/Include/cmsis_gcc.h ****  * @file     cmsis_gcc.h
   3:Drivers/CMSIS/Include/cmsis_gcc.h ****  * @brief    CMSIS compiler GCC header file
   4:Drivers/CMSIS/Include/cmsis_gcc.h ****  * @version  V5.0.4
   5:Drivers/CMSIS/Include/cmsis_gcc.h ****  * @date     09. April 2018
   6:Drivers/CMSIS/Include/cmsis_gcc.h ****  ******************************************************************************/
   7:Drivers/CMSIS/Include/cmsis_gcc.h **** /*
   8:Drivers/CMSIS/Include/cmsis_gcc.h ****  * Copyright (c) 2009-2018 Arm Limited. All rights reserved.
   9:Drivers/CMSIS/Include/cmsis_gcc.h ****  *
  10:Drivers/CMSIS/Include/cmsis_gcc.h ****  * SPDX-License-Identifier: Apache-2.0
  11:Drivers/CMSIS/Include/cmsis_gcc.h ****  *
  12:Drivers/CMSIS/Include/cmsis_gcc.h ****  * Licensed under the Apache License, Version 2.0 (the License); you may
  13:Drivers/CMSIS/Include/cmsis_gcc.h ****  * not use this file except in compliance with the License.
  14:Drivers/CMSIS/Include/cmsis_gcc.h ****  * You may obtain a copy of the License at
  15:Drivers/CMSIS/Include/cmsis_gcc.h ****  *
  16:Drivers/CMSIS/Include/cmsis_gcc.h ****  * www.apache.org/licenses/LICENSE-2.0
  17:Drivers/CMSIS/Include/cmsis_gcc.h ****  *
  18:Drivers/CMSIS/Include/cmsis_gcc.h ****  * Unless required by applicable law or agreed to in writing, software
  19:Drivers/CMSIS/Include/cmsis_gcc.h ****  * distributed under the License is distributed on an AS IS BASIS, WITHOUT
  20:Drivers/CMSIS/Include/cmsis_gcc.h ****  * WARRANTIES OR CONDITIONS OF ANY KIND, either express or implied.
  21:Drivers/CMSIS/Include/cmsis_gcc.h ****  * See the License for the specific language governing permissions and
  22:Drivers/CMSIS/Include/cmsis_gcc.h ****  * limitations under the License.
  23:Drivers/CMSIS/Include/cmsis_gcc.h ****  */
  24:Drivers/CMSIS/Include/cmsis_gcc.h **** 
  25:Drivers/CMSIS/Include/cmsis_gcc.h **** #ifndef __CMSIS_GCC_H
  26:Drivers/CMSIS/Include/cmsis_gcc.h **** #define __CMSIS_GCC_H
  27:Drivers/CMSIS/Include/cmsis_gcc.h **** 
  28:Drivers/CMSIS/Include/cmsis_gcc.h **** /* ignore some GCC warnings */
  29:Drivers/CMSIS/Include/cmsis_gcc.h **** #pragma GCC diagnostic push
  30:Drivers/CMSIS/Include/cmsis_gcc.h **** #pragma GCC diagnostic ignored "-Wsign-conversion"
  31:Drivers/CMSIS/Include/cmsis_gcc.h **** #pragma GCC diagnostic ignored "-Wconversion"
  32:Drivers/CMSIS/Include/cmsis_gcc.h **** #pragma GCC diagnostic ignored "-Wunused-parameter"
  33:Drivers/CMSIS/Include/cmsis_gcc.h **** 
  34:Drivers/CMSIS/Include/cmsis_gcc.h **** /* Fallback for __has_builtin */
  35:Drivers/CMSIS/Include/cmsis_gcc.h **** #ifndef __has_builtin
  36:Drivers/CMSIS/Include/cmsis_gcc.h ****   #define __has_builtin(x) (0)
  37:Drivers/CMSIS/Include/cmsis_gcc.h **** #endif
  38:Drivers/CMSIS/Include/cmsis_gcc.h **** 
  39:Drivers/CMSIS/Include/cmsis_gcc.h **** /* CMSIS compiler specific defines */
ARM GAS  C:\Users\28212\AppData\Local\Temp\ccAB46Z4.s 			page 9


  40:Drivers/CMSIS/Include/cmsis_gcc.h **** #ifndef   __ASM
  41:Drivers/CMSIS/Include/cmsis_gcc.h ****   #define __ASM                                  __asm
  42:Drivers/CMSIS/Include/cmsis_gcc.h **** #endif
  43:Drivers/CMSIS/Include/cmsis_gcc.h **** #ifndef   __INLINE
  44:Drivers/CMSIS/Include/cmsis_gcc.h ****   #define __INLINE                               inline
  45:Drivers/CMSIS/Include/cmsis_gcc.h **** #endif
  46:Drivers/CMSIS/Include/cmsis_gcc.h **** #ifndef   __STATIC_INLINE
  47:Drivers/CMSIS/Include/cmsis_gcc.h ****   #define __STATIC_INLINE                        static inline
  48:Drivers/CMSIS/Include/cmsis_gcc.h **** #endif
  49:Drivers/CMSIS/Include/cmsis_gcc.h **** #ifndef   __STATIC_FORCEINLINE                 
  50:Drivers/CMSIS/Include/cmsis_gcc.h ****   #define __STATIC_FORCEINLINE                   __attribute__((always_inline)) static inline
  51:Drivers/CMSIS/Include/cmsis_gcc.h **** #endif                                           
  52:Drivers/CMSIS/Include/cmsis_gcc.h **** #ifndef   __NO_RETURN
  53:Drivers/CMSIS/Include/cmsis_gcc.h ****   #define __NO_RETURN                            __attribute__((__noreturn__))
  54:Drivers/CMSIS/Include/cmsis_gcc.h **** #endif
  55:Drivers/CMSIS/Include/cmsis_gcc.h **** #ifndef   __USED
  56:Drivers/CMSIS/Include/cmsis_gcc.h ****   #define __USED                                 __attribute__((used))
  57:Drivers/CMSIS/Include/cmsis_gcc.h **** #endif
  58:Drivers/CMSIS/Include/cmsis_gcc.h **** #ifndef   __WEAK
  59:Drivers/CMSIS/Include/cmsis_gcc.h ****   #define __WEAK                                 __attribute__((weak))
  60:Drivers/CMSIS/Include/cmsis_gcc.h **** #endif
  61:Drivers/CMSIS/Include/cmsis_gcc.h **** #ifndef   __PACKED
  62:Drivers/CMSIS/Include/cmsis_gcc.h ****   #define __PACKED                               __attribute__((packed, aligned(1)))
  63:Drivers/CMSIS/Include/cmsis_gcc.h **** #endif
  64:Drivers/CMSIS/Include/cmsis_gcc.h **** #ifndef   __PACKED_STRUCT
  65:Drivers/CMSIS/Include/cmsis_gcc.h ****   #define __PACKED_STRUCT                        struct __attribute__((packed, aligned(1)))
  66:Drivers/CMSIS/Include/cmsis_gcc.h **** #endif
  67:Drivers/CMSIS/Include/cmsis_gcc.h **** #ifndef   __PACKED_UNION
  68:Drivers/CMSIS/Include/cmsis_gcc.h ****   #define __PACKED_UNION                         union __attribute__((packed, aligned(1)))
  69:Drivers/CMSIS/Include/cmsis_gcc.h **** #endif
  70:Drivers/CMSIS/Include/cmsis_gcc.h **** #ifndef   __UNALIGNED_UINT32        /* deprecated */
  71:Drivers/CMSIS/Include/cmsis_gcc.h ****   #pragma GCC diagnostic push
  72:Drivers/CMSIS/Include/cmsis_gcc.h ****   #pragma GCC diagnostic ignored "-Wpacked"
  73:Drivers/CMSIS/Include/cmsis_gcc.h ****   #pragma GCC diagnostic ignored "-Wattributes"
  74:Drivers/CMSIS/Include/cmsis_gcc.h ****   struct __attribute__((packed)) T_UINT32 { uint32_t v; };
  75:Drivers/CMSIS/Include/cmsis_gcc.h ****   #pragma GCC diagnostic pop
  76:Drivers/CMSIS/Include/cmsis_gcc.h ****   #define __UNALIGNED_UINT32(x)                  (((struct T_UINT32 *)(x))->v)
  77:Drivers/CMSIS/Include/cmsis_gcc.h **** #endif
  78:Drivers/CMSIS/Include/cmsis_gcc.h **** #ifndef   __UNALIGNED_UINT16_WRITE
  79:Drivers/CMSIS/Include/cmsis_gcc.h ****   #pragma GCC diagnostic push
  80:Drivers/CMSIS/Include/cmsis_gcc.h ****   #pragma GCC diagnostic ignored "-Wpacked"
  81:Drivers/CMSIS/Include/cmsis_gcc.h ****   #pragma GCC diagnostic ignored "-Wattributes"
  82:Drivers/CMSIS/Include/cmsis_gcc.h ****   __PACKED_STRUCT T_UINT16_WRITE { uint16_t v; };
  83:Drivers/CMSIS/Include/cmsis_gcc.h ****   #pragma GCC diagnostic pop
  84:Drivers/CMSIS/Include/cmsis_gcc.h ****   #define __UNALIGNED_UINT16_WRITE(addr, val)    (void)((((struct T_UINT16_WRITE *)(void *)(addr))-
  85:Drivers/CMSIS/Include/cmsis_gcc.h **** #endif
  86:Drivers/CMSIS/Include/cmsis_gcc.h **** #ifndef   __UNALIGNED_UINT16_READ
  87:Drivers/CMSIS/Include/cmsis_gcc.h ****   #pragma GCC diagnostic push
  88:Drivers/CMSIS/Include/cmsis_gcc.h ****   #pragma GCC diagnostic ignored "-Wpacked"
  89:Drivers/CMSIS/Include/cmsis_gcc.h ****   #pragma GCC diagnostic ignored "-Wattributes"
  90:Drivers/CMSIS/Include/cmsis_gcc.h ****   __PACKED_STRUCT T_UINT16_READ { uint16_t v; };
  91:Drivers/CMSIS/Include/cmsis_gcc.h ****   #pragma GCC diagnostic pop
  92:Drivers/CMSIS/Include/cmsis_gcc.h ****   #define __UNALIGNED_UINT16_READ(addr)          (((const struct T_UINT16_READ *)(const void *)(add
  93:Drivers/CMSIS/Include/cmsis_gcc.h **** #endif
  94:Drivers/CMSIS/Include/cmsis_gcc.h **** #ifndef   __UNALIGNED_UINT32_WRITE
  95:Drivers/CMSIS/Include/cmsis_gcc.h ****   #pragma GCC diagnostic push
  96:Drivers/CMSIS/Include/cmsis_gcc.h ****   #pragma GCC diagnostic ignored "-Wpacked"
ARM GAS  C:\Users\28212\AppData\Local\Temp\ccAB46Z4.s 			page 10


  97:Drivers/CMSIS/Include/cmsis_gcc.h ****   #pragma GCC diagnostic ignored "-Wattributes"
  98:Drivers/CMSIS/Include/cmsis_gcc.h ****   __PACKED_STRUCT T_UINT32_WRITE { uint32_t v; };
  99:Drivers/CMSIS/Include/cmsis_gcc.h ****   #pragma GCC diagnostic pop
 100:Drivers/CMSIS/Include/cmsis_gcc.h ****   #define __UNALIGNED_UINT32_WRITE(addr, val)    (void)((((struct T_UINT32_WRITE *)(void *)(addr))-
 101:Drivers/CMSIS/Include/cmsis_gcc.h **** #endif
 102:Drivers/CMSIS/Include/cmsis_gcc.h **** #ifndef   __UNALIGNED_UINT32_READ
 103:Drivers/CMSIS/Include/cmsis_gcc.h ****   #pragma GCC diagnostic push
 104:Drivers/CMSIS/Include/cmsis_gcc.h ****   #pragma GCC diagnostic ignored "-Wpacked"
 105:Drivers/CMSIS/Include/cmsis_gcc.h ****   #pragma GCC diagnostic ignored "-Wattributes"
 106:Drivers/CMSIS/Include/cmsis_gcc.h ****   __PACKED_STRUCT T_UINT32_READ { uint32_t v; };
 107:Drivers/CMSIS/Include/cmsis_gcc.h ****   #pragma GCC diagnostic pop
 108:Drivers/CMSIS/Include/cmsis_gcc.h ****   #define __UNALIGNED_UINT32_READ(addr)          (((const struct T_UINT32_READ *)(const void *)(add
 109:Drivers/CMSIS/Include/cmsis_gcc.h **** #endif
 110:Drivers/CMSIS/Include/cmsis_gcc.h **** #ifndef   __ALIGNED
 111:Drivers/CMSIS/Include/cmsis_gcc.h ****   #define __ALIGNED(x)                           __attribute__((aligned(x)))
 112:Drivers/CMSIS/Include/cmsis_gcc.h **** #endif
 113:Drivers/CMSIS/Include/cmsis_gcc.h **** #ifndef   __RESTRICT
 114:Drivers/CMSIS/Include/cmsis_gcc.h ****   #define __RESTRICT                             __restrict
 115:Drivers/CMSIS/Include/cmsis_gcc.h **** #endif
 116:Drivers/CMSIS/Include/cmsis_gcc.h **** 
 117:Drivers/CMSIS/Include/cmsis_gcc.h **** 
 118:Drivers/CMSIS/Include/cmsis_gcc.h **** /* ###########################  Core Function Access  ########################### */
 119:Drivers/CMSIS/Include/cmsis_gcc.h **** /** \ingroup  CMSIS_Core_FunctionInterface
 120:Drivers/CMSIS/Include/cmsis_gcc.h ****     \defgroup CMSIS_Core_RegAccFunctions CMSIS Core Register Access Functions
 121:Drivers/CMSIS/Include/cmsis_gcc.h ****   @{
 122:Drivers/CMSIS/Include/cmsis_gcc.h ****  */
 123:Drivers/CMSIS/Include/cmsis_gcc.h **** 
 124:Drivers/CMSIS/Include/cmsis_gcc.h **** /**
 125:Drivers/CMSIS/Include/cmsis_gcc.h ****   \brief   Enable IRQ Interrupts
 126:Drivers/CMSIS/Include/cmsis_gcc.h ****   \details Enables IRQ interrupts by clearing the I-bit in the CPSR.
 127:Drivers/CMSIS/Include/cmsis_gcc.h ****            Can only be executed in Privileged modes.
 128:Drivers/CMSIS/Include/cmsis_gcc.h ****  */
 129:Drivers/CMSIS/Include/cmsis_gcc.h **** __STATIC_FORCEINLINE void __enable_irq(void)
 130:Drivers/CMSIS/Include/cmsis_gcc.h **** {
 131:Drivers/CMSIS/Include/cmsis_gcc.h ****   __ASM volatile ("cpsie i" : : : "memory");
 132:Drivers/CMSIS/Include/cmsis_gcc.h **** }
 133:Drivers/CMSIS/Include/cmsis_gcc.h **** 
 134:Drivers/CMSIS/Include/cmsis_gcc.h **** 
 135:Drivers/CMSIS/Include/cmsis_gcc.h **** /**
 136:Drivers/CMSIS/Include/cmsis_gcc.h ****   \brief   Disable IRQ Interrupts
 137:Drivers/CMSIS/Include/cmsis_gcc.h ****   \details Disables IRQ interrupts by setting the I-bit in the CPSR.
 138:Drivers/CMSIS/Include/cmsis_gcc.h ****            Can only be executed in Privileged modes.
 139:Drivers/CMSIS/Include/cmsis_gcc.h ****  */
 140:Drivers/CMSIS/Include/cmsis_gcc.h **** __STATIC_FORCEINLINE void __disable_irq(void)
 219              		.loc 2 140 27 view .LVU65
 220              	.LBB59:
 141:Drivers/CMSIS/Include/cmsis_gcc.h **** {
 142:Drivers/CMSIS/Include/cmsis_gcc.h ****   __ASM volatile ("cpsid i" : : : "memory");
 221              		.loc 2 142 3 view .LVU66
 222              		.syntax unified
 223              	@ 142 "Drivers/CMSIS/Include/cmsis_gcc.h" 1
 224 0004 72B6     		cpsid i
 225              	@ 0 "" 2
 226              		.thumb
 227              		.syntax unified
 228              	.LBE59:
 229              	.LBE58:
ARM GAS  C:\Users\28212\AppData\Local\Temp\ccAB46Z4.s 			page 11


 230              		.loc 1 182 5 view .LVU67
 183:ACE-ECF/Algorithm/src/fifo.c **** 
 184:ACE-ECF/Algorithm/src/fifo.c ****     if (0 == p_fifo->free_num)
 231              		.loc 1 184 5 view .LVU68
 232              		.loc 1 184 20 is_stmt 0 view .LVU69
 233 0006 8368     		ldr	r3, [r0, #8]
 234              		.loc 1 184 8 view .LVU70
 235 0008 9BB1     		cbz	r3, .L14
 185:ACE-ECF/Algorithm/src/fifo.c ****     {
 186:ACE-ECF/Algorithm/src/fifo.c ****         //! Error, FIFO is full!
 187:ACE-ECF/Algorithm/src/fifo.c ****         MUTEX_UNLOCK(p_fifo->mutex);
 188:ACE-ECF/Algorithm/src/fifo.c ****         return (-1);
 189:ACE-ECF/Algorithm/src/fifo.c ****     }
 190:ACE-ECF/Algorithm/src/fifo.c **** 
 191:ACE-ECF/Algorithm/src/fifo.c ****     if (p_fifo->p_write_addr > p_fifo->p_end_addr)
 236              		.loc 1 191 5 is_stmt 1 view .LVU71
 237              		.loc 1 191 15 is_stmt 0 view .LVU72
 238 000a 4269     		ldr	r2, [r0, #20]
 239              		.loc 1 191 38 view .LVU73
 240 000c 4368     		ldr	r3, [r0, #4]
 241              		.loc 1 191 8 view .LVU74
 242 000e 9A42     		cmp	r2, r3
 243 0010 01D9     		bls	.L12
 192:ACE-ECF/Algorithm/src/fifo.c ****     {
 193:ACE-ECF/Algorithm/src/fifo.c ****         p_fifo->p_write_addr = p_fifo->p_start_addr;
 244              		.loc 1 193 9 is_stmt 1 view .LVU75
 245              		.loc 1 193 38 is_stmt 0 view .LVU76
 246 0012 0368     		ldr	r3, [r0]
 247              		.loc 1 193 30 view .LVU77
 248 0014 4361     		str	r3, [r0, #20]
 249              	.L12:
 194:ACE-ECF/Algorithm/src/fifo.c ****     }
 195:ACE-ECF/Algorithm/src/fifo.c **** 
 196:ACE-ECF/Algorithm/src/fifo.c ****     *(p_fifo->p_write_addr) = element;
 250              		.loc 1 196 5 is_stmt 1 view .LVU78
 251              		.loc 1 196 13 is_stmt 0 view .LVU79
 252 0016 4369     		ldr	r3, [r0, #20]
 253              		.loc 1 196 29 view .LVU80
 254 0018 1970     		strb	r1, [r3]
 197:ACE-ECF/Algorithm/src/fifo.c ****     p_fifo->p_write_addr++;
 255              		.loc 1 197 5 is_stmt 1 view .LVU81
 256              		.loc 1 197 11 is_stmt 0 view .LVU82
 257 001a 4369     		ldr	r3, [r0, #20]
 258              		.loc 1 197 25 view .LVU83
 259 001c 0133     		adds	r3, r3, #1
 260 001e 4361     		str	r3, [r0, #20]
 198:ACE-ECF/Algorithm/src/fifo.c ****     p_fifo->free_num--;
 261              		.loc 1 198 5 is_stmt 1 view .LVU84
 262              		.loc 1 198 11 is_stmt 0 view .LVU85
 263 0020 8368     		ldr	r3, [r0, #8]
 264              		.loc 1 198 21 view .LVU86
 265 0022 013B     		subs	r3, r3, #1
 266 0024 8360     		str	r3, [r0, #8]
 199:ACE-ECF/Algorithm/src/fifo.c ****     p_fifo->used_num++;
 267              		.loc 1 199 5 is_stmt 1 view .LVU87
 268              		.loc 1 199 11 is_stmt 0 view .LVU88
 269 0026 C368     		ldr	r3, [r0, #12]
ARM GAS  C:\Users\28212\AppData\Local\Temp\ccAB46Z4.s 			page 12


 270              		.loc 1 199 21 view .LVU89
 271 0028 0133     		adds	r3, r3, #1
 272 002a C360     		str	r3, [r0, #12]
 200:ACE-ECF/Algorithm/src/fifo.c ****     MUTEX_UNLOCK(p_fifo->mutex);
 273              		.loc 1 200 5 is_stmt 1 view .LVU90
 274              		.loc 1 200 5 view .LVU91
 275              	.LBB60:
 276              	.LBI60:
 129:Drivers/CMSIS/Include/cmsis_gcc.h **** {
 277              		.loc 2 129 27 view .LVU92
 278              	.LBB61:
 131:Drivers/CMSIS/Include/cmsis_gcc.h **** }
 279              		.loc 2 131 3 view .LVU93
 280              		.syntax unified
 281              	@ 131 "Drivers/CMSIS/Include/cmsis_gcc.h" 1
 282 002c 62B6     		cpsie i
 283              	@ 0 "" 2
 284              		.thumb
 285              		.syntax unified
 286              	.LBE61:
 287              	.LBE60:
 288              		.loc 1 200 5 view .LVU94
 201:ACE-ECF/Algorithm/src/fifo.c **** 
 202:ACE-ECF/Algorithm/src/fifo.c ****     return (0);
 289              		.loc 1 202 5 view .LVU95
 290              		.loc 1 202 12 is_stmt 0 view .LVU96
 291 002e 0020     		movs	r0, #0
 292              	.LVL19:
 293              		.loc 1 202 12 view .LVU97
 294 0030 7047     		bx	lr
 295              	.LVL20:
 296              	.L14:
 187:ACE-ECF/Algorithm/src/fifo.c ****         return (-1);
 297              		.loc 1 187 9 is_stmt 1 view .LVU98
 187:ACE-ECF/Algorithm/src/fifo.c ****         return (-1);
 298              		.loc 1 187 9 view .LVU99
 299              	.LBB62:
 300              	.LBI62:
 129:Drivers/CMSIS/Include/cmsis_gcc.h **** {
 301              		.loc 2 129 27 view .LVU100
 302              	.LBB63:
 131:Drivers/CMSIS/Include/cmsis_gcc.h **** }
 303              		.loc 2 131 3 view .LVU101
 304              		.syntax unified
 305              	@ 131 "Drivers/CMSIS/Include/cmsis_gcc.h" 1
 306 0032 62B6     		cpsie i
 307              	@ 0 "" 2
 308              		.thumb
 309              		.syntax unified
 310              	.LBE63:
 311              	.LBE62:
 187:ACE-ECF/Algorithm/src/fifo.c ****         return (-1);
 312              		.loc 1 187 9 view .LVU102
 188:ACE-ECF/Algorithm/src/fifo.c ****     }
 313              		.loc 1 188 9 view .LVU103
 188:ACE-ECF/Algorithm/src/fifo.c ****     }
 314              		.loc 1 188 16 is_stmt 0 view .LVU104
ARM GAS  C:\Users\28212\AppData\Local\Temp\ccAB46Z4.s 			page 13


 315 0034 4FF0FF30 		mov	r0, #-1
 316              	.LVL21:
 188:ACE-ECF/Algorithm/src/fifo.c ****     }
 317              		.loc 1 188 16 view .LVU105
 318 0038 7047     		bx	lr
 319              	.LVL22:
 320              	.L13:
 179:ACE-ECF/Algorithm/src/fifo.c ****     }
 321              		.loc 1 179 16 view .LVU106
 322 003a 4FF0FF30 		mov	r0, #-1
 323              	.LVL23:
 203:ACE-ECF/Algorithm/src/fifo.c **** }
 324              		.loc 1 203 1 view .LVU107
 325 003e 7047     		bx	lr
 326              		.cfi_endproc
 327              	.LFE162:
 329              		.section	.text.fifo_s_puts,"ax",%progbits
 330              		.align	1
 331              		.global	fifo_s_puts
 332              		.syntax unified
 333              		.thumb
 334              		.thumb_func
 336              	fifo_s_puts:
 337              	.LVL24:
 338              	.LFB163:
 204:ACE-ECF/Algorithm/src/fifo.c **** 
 205:ACE-ECF/Algorithm/src/fifo.c **** //******************************************************************************************
 206:ACE-ECF/Algorithm/src/fifo.c **** //
 207:ACE-ECF/Algorithm/src/fifo.c **** //! \brief  Put some elements into FIFO(in single mode).
 208:ACE-ECF/Algorithm/src/fifo.c **** //!
 209:ACE-ECF/Algorithm/src/fifo.c **** //! \param  [in]  p_fifo is the pointer of valid FIFO.
 210:ACE-ECF/Algorithm/src/fifo.c **** //! \param  [in]  p_source is the data element you want to put
 211:ACE-ECF/Algorithm/src/fifo.c **** //! \param  [in]  the number of elements
 212:ACE-ECF/Algorithm/src/fifo.c **** //! \retval the number of really write data, otherwise return -1.
 213:ACE-ECF/Algorithm/src/fifo.c **** //
 214:ACE-ECF/Algorithm/src/fifo.c **** //******************************************************************************************
 215:ACE-ECF/Algorithm/src/fifo.c **** int fifo_s_puts(fifo_s_t *p_fifo, char *p_source, int len)
 216:ACE-ECF/Algorithm/src/fifo.c **** {
 339              		.loc 1 216 1 is_stmt 1 view -0
 340              		.cfi_startproc
 341              		@ args = 0, pretend = 0, frame = 0
 342              		@ frame_needed = 0, uses_anonymous_args = 0
 343              		.loc 1 216 1 is_stmt 0 view .LVU109
 344 0000 2DE9F041 		push	{r4, r5, r6, r7, r8, lr}
 345              	.LCFI2:
 346              		.cfi_def_cfa_offset 24
 347              		.cfi_offset 4, -24
 348              		.cfi_offset 5, -20
 349              		.cfi_offset 6, -16
 350              		.cfi_offset 7, -12
 351              		.cfi_offset 8, -8
 352              		.cfi_offset 14, -4
 217:ACE-ECF/Algorithm/src/fifo.c ****     int retval;
 353              		.loc 1 217 5 is_stmt 1 view .LVU110
 218:ACE-ECF/Algorithm/src/fifo.c ****     int len_to_end;
 354              		.loc 1 218 5 view .LVU111
 219:ACE-ECF/Algorithm/src/fifo.c ****     int len_from_start;
ARM GAS  C:\Users\28212\AppData\Local\Temp\ccAB46Z4.s 			page 14


 355              		.loc 1 219 5 view .LVU112
 220:ACE-ECF/Algorithm/src/fifo.c **** 
 221:ACE-ECF/Algorithm/src/fifo.c ****     ASSERT(p_fifo);
 356              		.loc 1 221 19 view .LVU113
 222:ACE-ECF/Algorithm/src/fifo.c **** 
 223:ACE-ECF/Algorithm/src/fifo.c ****     if (NULL == p_source)
 357              		.loc 1 223 5 view .LVU114
 358              		.loc 1 223 8 is_stmt 0 view .LVU115
 359 0004 0029     		cmp	r1, #0
 360 0006 36D0     		beq	.L21
 361 0008 0446     		mov	r4, r0
 362 000a 0F46     		mov	r7, r1
 224:ACE-ECF/Algorithm/src/fifo.c ****     {
 225:ACE-ECF/Algorithm/src/fifo.c ****         return -1;
 226:ACE-ECF/Algorithm/src/fifo.c ****     }
 227:ACE-ECF/Algorithm/src/fifo.c **** 
 228:ACE-ECF/Algorithm/src/fifo.c ****     if (0 == p_fifo->free_num)
 363              		.loc 1 228 5 is_stmt 1 view .LVU116
 364              		.loc 1 228 20 is_stmt 0 view .LVU117
 365 000c 8568     		ldr	r5, [r0, #8]
 366              		.loc 1 228 8 view .LVU118
 367 000e F5B1     		cbz	r5, .L15
 229:ACE-ECF/Algorithm/src/fifo.c ****     {
 230:ACE-ECF/Algorithm/src/fifo.c ****         return 0;
 231:ACE-ECF/Algorithm/src/fifo.c ****     }
 232:ACE-ECF/Algorithm/src/fifo.c **** 
 233:ACE-ECF/Algorithm/src/fifo.c ****     MUTEX_LOCK(p_fifo->mutex);
 368              		.loc 1 233 5 is_stmt 1 view .LVU119
 369              		.loc 1 233 5 view .LVU120
 370              	.LBB64:
 371              	.LBI64:
 140:Drivers/CMSIS/Include/cmsis_gcc.h **** {
 372              		.loc 2 140 27 view .LVU121
 373              	.LBB65:
 374              		.loc 2 142 3 view .LVU122
 375              		.syntax unified
 376              	@ 142 "Drivers/CMSIS/Include/cmsis_gcc.h" 1
 377 0010 72B6     		cpsid i
 378              	@ 0 "" 2
 379              		.thumb
 380              		.syntax unified
 381              	.LBE65:
 382              	.LBE64:
 383              		.loc 1 233 5 view .LVU123
 234:ACE-ECF/Algorithm/src/fifo.c **** 
 235:ACE-ECF/Algorithm/src/fifo.c ****     if (0 == p_fifo->free_num)
 384              		.loc 1 235 5 view .LVU124
 385              		.loc 1 235 20 is_stmt 0 view .LVU125
 386 0012 8568     		ldr	r5, [r0, #8]
 387              		.loc 1 235 8 view .LVU126
 388 0014 F5B1     		cbz	r5, .L23
 236:ACE-ECF/Algorithm/src/fifo.c ****     {
 237:ACE-ECF/Algorithm/src/fifo.c ****         MUTEX_UNLOCK(p_fifo->mutex);
 238:ACE-ECF/Algorithm/src/fifo.c ****         return 0;
 239:ACE-ECF/Algorithm/src/fifo.c ****     }
 240:ACE-ECF/Algorithm/src/fifo.c **** 
 241:ACE-ECF/Algorithm/src/fifo.c ****     if (p_fifo->p_write_addr > p_fifo->p_end_addr)
ARM GAS  C:\Users\28212\AppData\Local\Temp\ccAB46Z4.s 			page 15


 389              		.loc 1 241 5 is_stmt 1 view .LVU127
 390              		.loc 1 241 15 is_stmt 0 view .LVU128
 391 0016 4369     		ldr	r3, [r0, #20]
 392              		.loc 1 241 38 view .LVU129
 393 0018 4668     		ldr	r6, [r0, #4]
 394              		.loc 1 241 8 view .LVU130
 395 001a B342     		cmp	r3, r6
 396 001c 01D9     		bls	.L18
 242:ACE-ECF/Algorithm/src/fifo.c ****     {
 243:ACE-ECF/Algorithm/src/fifo.c ****         p_fifo->p_write_addr = p_fifo->p_start_addr;
 397              		.loc 1 243 9 is_stmt 1 view .LVU131
 398              		.loc 1 243 38 is_stmt 0 view .LVU132
 399 001e 0368     		ldr	r3, [r0]
 400              		.loc 1 243 30 view .LVU133
 401 0020 4361     		str	r3, [r0, #20]
 402              	.L18:
 244:ACE-ECF/Algorithm/src/fifo.c ****     }
 245:ACE-ECF/Algorithm/src/fifo.c **** 
 246:ACE-ECF/Algorithm/src/fifo.c ****     len = (len < p_fifo->free_num) ? len : p_fifo->free_num;
 403              		.loc 1 246 5 is_stmt 1 view .LVU134
 404              		.loc 1 246 9 is_stmt 0 view .LVU135
 405 0022 9542     		cmp	r5, r2
 406 0024 A8BF     		it	ge
 407 0026 1546     		movge	r5, r2
 408              	.LVL25:
 247:ACE-ECF/Algorithm/src/fifo.c ****     len_to_end = p_fifo->p_end_addr - p_fifo->p_write_addr + 1;
 409              		.loc 1 247 5 is_stmt 1 view .LVU136
 410              		.loc 1 247 45 is_stmt 0 view .LVU137
 411 0028 6069     		ldr	r0, [r4, #20]
 412              	.LVL26:
 413              		.loc 1 247 37 view .LVU138
 414 002a 361A     		subs	r6, r6, r0
 415              		.loc 1 247 16 view .LVU139
 416 002c 0136     		adds	r6, r6, #1
 417              	.LVL27:
 248:ACE-ECF/Algorithm/src/fifo.c **** 
 249:ACE-ECF/Algorithm/src/fifo.c ****     if (len_to_end >= len) //no rollback
 418              		.loc 1 249 5 is_stmt 1 view .LVU140
 419              		.loc 1 249 8 is_stmt 0 view .LVU141
 420 002e B542     		cmp	r5, r6
 421 0030 12DC     		bgt	.L19
 250:ACE-ECF/Algorithm/src/fifo.c ****     {
 251:ACE-ECF/Algorithm/src/fifo.c ****         len_to_end = len;
 422              		.loc 1 251 9 is_stmt 1 view .LVU142
 423              	.LVL28:
 252:ACE-ECF/Algorithm/src/fifo.c ****         memcpy(p_fifo->p_write_addr, p_source, len_to_end);
 424              		.loc 1 252 9 view .LVU143
 425 0032 2A46     		mov	r2, r5
 426 0034 3946     		mov	r1, r7
 427              	.LVL29:
 428              		.loc 1 252 9 is_stmt 0 view .LVU144
 429 0036 FFF7FEFF 		bl	memcpy
 430              	.LVL30:
 253:ACE-ECF/Algorithm/src/fifo.c ****         p_fifo->p_write_addr += len_to_end;
 431              		.loc 1 253 9 is_stmt 1 view .LVU145
 432              		.loc 1 253 30 is_stmt 0 view .LVU146
 433 003a 6369     		ldr	r3, [r4, #20]
ARM GAS  C:\Users\28212\AppData\Local\Temp\ccAB46Z4.s 			page 16


 434 003c 2B44     		add	r3, r3, r5
 435 003e 6361     		str	r3, [r4, #20]
 436              	.LVL31:
 437              	.L20:
 254:ACE-ECF/Algorithm/src/fifo.c ****     }
 255:ACE-ECF/Algorithm/src/fifo.c ****     else //rollback
 256:ACE-ECF/Algorithm/src/fifo.c ****     {
 257:ACE-ECF/Algorithm/src/fifo.c ****         len_from_start = len - len_to_end;
 258:ACE-ECF/Algorithm/src/fifo.c ****         memcpy(p_fifo->p_write_addr, p_source, len_to_end);
 259:ACE-ECF/Algorithm/src/fifo.c ****         memcpy(p_fifo->p_start_addr, p_source + len_to_end, len_from_start);
 260:ACE-ECF/Algorithm/src/fifo.c ****         p_fifo->p_write_addr = p_fifo->p_start_addr + len_from_start;
 261:ACE-ECF/Algorithm/src/fifo.c ****     }
 262:ACE-ECF/Algorithm/src/fifo.c **** 
 263:ACE-ECF/Algorithm/src/fifo.c ****     p_fifo->free_num -= len;
 438              		.loc 1 263 5 is_stmt 1 view .LVU147
 439              		.loc 1 263 22 is_stmt 0 view .LVU148
 440 0040 A368     		ldr	r3, [r4, #8]
 441 0042 5B1B     		subs	r3, r3, r5
 442 0044 A360     		str	r3, [r4, #8]
 264:ACE-ECF/Algorithm/src/fifo.c ****     p_fifo->used_num += len;
 443              		.loc 1 264 5 is_stmt 1 view .LVU149
 444              		.loc 1 264 22 is_stmt 0 view .LVU150
 445 0046 E368     		ldr	r3, [r4, #12]
 446 0048 2B44     		add	r3, r3, r5
 447 004a E360     		str	r3, [r4, #12]
 265:ACE-ECF/Algorithm/src/fifo.c ****     retval = len;
 448              		.loc 1 265 5 is_stmt 1 view .LVU151
 449              	.LVL32:
 266:ACE-ECF/Algorithm/src/fifo.c ****     MUTEX_UNLOCK(p_fifo->mutex);
 450              		.loc 1 266 5 view .LVU152
 451              		.loc 1 266 5 view .LVU153
 452              	.LBB66:
 453              	.LBI66:
 129:Drivers/CMSIS/Include/cmsis_gcc.h **** {
 454              		.loc 2 129 27 view .LVU154
 455              	.LBB67:
 131:Drivers/CMSIS/Include/cmsis_gcc.h **** }
 456              		.loc 2 131 3 view .LVU155
 457              		.syntax unified
 458              	@ 131 "Drivers/CMSIS/Include/cmsis_gcc.h" 1
 459 004c 62B6     		cpsie i
 460              	@ 0 "" 2
 461              		.thumb
 462              		.syntax unified
 463              	.LBE67:
 464              	.LBE66:
 465              		.loc 1 266 5 view .LVU156
 267:ACE-ECF/Algorithm/src/fifo.c **** 
 268:ACE-ECF/Algorithm/src/fifo.c ****     return retval;
 466              		.loc 1 268 5 view .LVU157
 467              	.LVL33:
 468              	.L15:
 269:ACE-ECF/Algorithm/src/fifo.c **** }
 469              		.loc 1 269 1 is_stmt 0 view .LVU158
 470 004e 2846     		mov	r0, r5
 471 0050 BDE8F081 		pop	{r4, r5, r6, r7, r8, pc}
 472              	.LVL34:
ARM GAS  C:\Users\28212\AppData\Local\Temp\ccAB46Z4.s 			page 17


 473              	.L23:
 237:ACE-ECF/Algorithm/src/fifo.c ****         return 0;
 474              		.loc 1 237 9 is_stmt 1 view .LVU159
 237:ACE-ECF/Algorithm/src/fifo.c ****         return 0;
 475              		.loc 1 237 9 view .LVU160
 476              	.LBB68:
 477              	.LBI68:
 129:Drivers/CMSIS/Include/cmsis_gcc.h **** {
 478              		.loc 2 129 27 view .LVU161
 479              	.LBB69:
 131:Drivers/CMSIS/Include/cmsis_gcc.h **** }
 480              		.loc 2 131 3 view .LVU162
 481              		.syntax unified
 482              	@ 131 "Drivers/CMSIS/Include/cmsis_gcc.h" 1
 483 0054 62B6     		cpsie i
 484              	@ 0 "" 2
 485              		.thumb
 486              		.syntax unified
 487              	.LBE69:
 488              	.LBE68:
 237:ACE-ECF/Algorithm/src/fifo.c ****         return 0;
 489              		.loc 1 237 9 view .LVU163
 238:ACE-ECF/Algorithm/src/fifo.c ****     }
 490              		.loc 1 238 9 view .LVU164
 238:ACE-ECF/Algorithm/src/fifo.c ****     }
 491              		.loc 1 238 16 is_stmt 0 view .LVU165
 492 0056 FAE7     		b	.L15
 493              	.LVL35:
 494              	.L19:
 257:ACE-ECF/Algorithm/src/fifo.c ****         memcpy(p_fifo->p_write_addr, p_source, len_to_end);
 495              		.loc 1 257 9 is_stmt 1 view .LVU166
 257:ACE-ECF/Algorithm/src/fifo.c ****         memcpy(p_fifo->p_write_addr, p_source, len_to_end);
 496              		.loc 1 257 24 is_stmt 0 view .LVU167
 497 0058 A5EB0608 		sub	r8, r5, r6
 498              	.LVL36:
 258:ACE-ECF/Algorithm/src/fifo.c ****         memcpy(p_fifo->p_start_addr, p_source + len_to_end, len_from_start);
 499              		.loc 1 258 9 is_stmt 1 view .LVU168
 500 005c 3246     		mov	r2, r6
 501 005e 3946     		mov	r1, r7
 502              	.LVL37:
 258:ACE-ECF/Algorithm/src/fifo.c ****         memcpy(p_fifo->p_start_addr, p_source + len_to_end, len_from_start);
 503              		.loc 1 258 9 is_stmt 0 view .LVU169
 504 0060 FFF7FEFF 		bl	memcpy
 505              	.LVL38:
 259:ACE-ECF/Algorithm/src/fifo.c ****         p_fifo->p_write_addr = p_fifo->p_start_addr + len_from_start;
 506              		.loc 1 259 9 is_stmt 1 view .LVU170
 507 0064 4246     		mov	r2, r8
 508 0066 B919     		adds	r1, r7, r6
 509 0068 2068     		ldr	r0, [r4]
 510 006a FFF7FEFF 		bl	memcpy
 511              	.LVL39:
 260:ACE-ECF/Algorithm/src/fifo.c ****     }
 512              		.loc 1 260 9 view .LVU171
 260:ACE-ECF/Algorithm/src/fifo.c ****     }
 513              		.loc 1 260 38 is_stmt 0 view .LVU172
 514 006e 2368     		ldr	r3, [r4]
 260:ACE-ECF/Algorithm/src/fifo.c ****     }
ARM GAS  C:\Users\28212\AppData\Local\Temp\ccAB46Z4.s 			page 18


 515              		.loc 1 260 53 view .LVU173
 516 0070 4344     		add	r3, r3, r8
 260:ACE-ECF/Algorithm/src/fifo.c ****     }
 517              		.loc 1 260 30 view .LVU174
 518 0072 6361     		str	r3, [r4, #20]
 519 0074 E4E7     		b	.L20
 520              	.LVL40:
 521              	.L21:
 225:ACE-ECF/Algorithm/src/fifo.c ****     }
 522              		.loc 1 225 16 view .LVU175
 523 0076 4FF0FF35 		mov	r5, #-1
 524 007a E8E7     		b	.L15
 525              		.cfi_endproc
 526              	.LFE163:
 528              		.section	.text.fifo_s_puts_noprotect,"ax",%progbits
 529              		.align	1
 530              		.global	fifo_s_puts_noprotect
 531              		.syntax unified
 532              		.thumb
 533              		.thumb_func
 535              	fifo_s_puts_noprotect:
 536              	.LVL41:
 537              	.LFB164:
 270:ACE-ECF/Algorithm/src/fifo.c **** 
 271:ACE-ECF/Algorithm/src/fifo.c **** //******************************************************************************************
 272:ACE-ECF/Algorithm/src/fifo.c **** //
 273:ACE-ECF/Algorithm/src/fifo.c **** //! \brief  Put some elements into FIFO, ingnore the interrupt
 274:ACE-ECF/Algorithm/src/fifo.c **** //!
 275:ACE-ECF/Algorithm/src/fifo.c **** //! \param  [in]  p_fifo is the pointer of valid FIFO.
 276:ACE-ECF/Algorithm/src/fifo.c **** //! \param  [in]  p_source is the data element you want to put
 277:ACE-ECF/Algorithm/src/fifo.c **** //! \param  [in]  the number of elements
 278:ACE-ECF/Algorithm/src/fifo.c **** //! \retval the number of really write data, otherwise return -1.
 279:ACE-ECF/Algorithm/src/fifo.c **** //
 280:ACE-ECF/Algorithm/src/fifo.c **** //******************************************************************************************
 281:ACE-ECF/Algorithm/src/fifo.c **** int fifo_s_puts_noprotect(fifo_s_t *p_fifo, char *p_source, int len)
 282:ACE-ECF/Algorithm/src/fifo.c **** {
 538              		.loc 1 282 1 is_stmt 1 view -0
 539              		.cfi_startproc
 540              		@ args = 0, pretend = 0, frame = 0
 541              		@ frame_needed = 0, uses_anonymous_args = 0
 542              		.loc 1 282 1 is_stmt 0 view .LVU177
 543 0000 2DE9F041 		push	{r4, r5, r6, r7, r8, lr}
 544              	.LCFI3:
 545              		.cfi_def_cfa_offset 24
 546              		.cfi_offset 4, -24
 547              		.cfi_offset 5, -20
 548              		.cfi_offset 6, -16
 549              		.cfi_offset 7, -12
 550              		.cfi_offset 8, -8
 551              		.cfi_offset 14, -4
 283:ACE-ECF/Algorithm/src/fifo.c ****     int retval;
 552              		.loc 1 283 5 is_stmt 1 view .LVU178
 284:ACE-ECF/Algorithm/src/fifo.c ****     int len_to_end;
 553              		.loc 1 284 5 view .LVU179
 285:ACE-ECF/Algorithm/src/fifo.c ****     int len_from_start;
 554              		.loc 1 285 5 view .LVU180
 286:ACE-ECF/Algorithm/src/fifo.c **** 
ARM GAS  C:\Users\28212\AppData\Local\Temp\ccAB46Z4.s 			page 19


 287:ACE-ECF/Algorithm/src/fifo.c ****     ASSERT(p_fifo);
 555              		.loc 1 287 19 view .LVU181
 288:ACE-ECF/Algorithm/src/fifo.c **** 
 289:ACE-ECF/Algorithm/src/fifo.c ****     if (NULL == p_source)
 556              		.loc 1 289 5 view .LVU182
 557              		.loc 1 289 8 is_stmt 0 view .LVU183
 558 0004 81B3     		cbz	r1, .L29
 559 0006 0446     		mov	r4, r0
 560 0008 0F46     		mov	r7, r1
 290:ACE-ECF/Algorithm/src/fifo.c ****     {
 291:ACE-ECF/Algorithm/src/fifo.c ****         return -1;
 292:ACE-ECF/Algorithm/src/fifo.c ****     }
 293:ACE-ECF/Algorithm/src/fifo.c **** 
 294:ACE-ECF/Algorithm/src/fifo.c ****     if (0 == p_fifo->free_num)
 561              		.loc 1 294 5 is_stmt 1 view .LVU184
 562              		.loc 1 294 20 is_stmt 0 view .LVU185
 563 000a 8568     		ldr	r5, [r0, #8]
 564              		.loc 1 294 8 view .LVU186
 565 000c D5B1     		cbz	r5, .L24
 295:ACE-ECF/Algorithm/src/fifo.c ****     {
 296:ACE-ECF/Algorithm/src/fifo.c ****         return 0;
 297:ACE-ECF/Algorithm/src/fifo.c ****     }
 298:ACE-ECF/Algorithm/src/fifo.c **** 
 299:ACE-ECF/Algorithm/src/fifo.c ****     if (p_fifo->p_write_addr > p_fifo->p_end_addr)
 566              		.loc 1 299 5 is_stmt 1 view .LVU187
 567              		.loc 1 299 15 is_stmt 0 view .LVU188
 568 000e 4369     		ldr	r3, [r0, #20]
 569              		.loc 1 299 38 view .LVU189
 570 0010 4668     		ldr	r6, [r0, #4]
 571              		.loc 1 299 8 view .LVU190
 572 0012 B342     		cmp	r3, r6
 573 0014 01D9     		bls	.L26
 300:ACE-ECF/Algorithm/src/fifo.c ****     {
 301:ACE-ECF/Algorithm/src/fifo.c ****         p_fifo->p_write_addr = p_fifo->p_start_addr;
 574              		.loc 1 301 9 is_stmt 1 view .LVU191
 575              		.loc 1 301 38 is_stmt 0 view .LVU192
 576 0016 0368     		ldr	r3, [r0]
 577              		.loc 1 301 30 view .LVU193
 578 0018 4361     		str	r3, [r0, #20]
 579              	.L26:
 302:ACE-ECF/Algorithm/src/fifo.c ****     }
 303:ACE-ECF/Algorithm/src/fifo.c **** 
 304:ACE-ECF/Algorithm/src/fifo.c ****     len = (len < p_fifo->free_num) ? len : p_fifo->free_num;
 580              		.loc 1 304 5 is_stmt 1 view .LVU194
 581              		.loc 1 304 9 is_stmt 0 view .LVU195
 582 001a 9542     		cmp	r5, r2
 583 001c A8BF     		it	ge
 584 001e 1546     		movge	r5, r2
 585              	.LVL42:
 305:ACE-ECF/Algorithm/src/fifo.c ****     len_to_end = p_fifo->p_end_addr - p_fifo->p_write_addr + 1;
 586              		.loc 1 305 5 is_stmt 1 view .LVU196
 587              		.loc 1 305 45 is_stmt 0 view .LVU197
 588 0020 6069     		ldr	r0, [r4, #20]
 589              	.LVL43:
 590              		.loc 1 305 37 view .LVU198
 591 0022 361A     		subs	r6, r6, r0
 592              		.loc 1 305 16 view .LVU199
ARM GAS  C:\Users\28212\AppData\Local\Temp\ccAB46Z4.s 			page 20


 593 0024 0136     		adds	r6, r6, #1
 594              	.LVL44:
 306:ACE-ECF/Algorithm/src/fifo.c **** 
 307:ACE-ECF/Algorithm/src/fifo.c ****     if (len_to_end >= len) //no rollback
 595              		.loc 1 307 5 is_stmt 1 view .LVU200
 596              		.loc 1 307 8 is_stmt 0 view .LVU201
 597 0026 B542     		cmp	r5, r6
 598 0028 0FDC     		bgt	.L27
 308:ACE-ECF/Algorithm/src/fifo.c ****     {
 309:ACE-ECF/Algorithm/src/fifo.c ****         len_to_end = len;
 599              		.loc 1 309 9 is_stmt 1 view .LVU202
 600              	.LVL45:
 310:ACE-ECF/Algorithm/src/fifo.c ****         memcpy(p_fifo->p_write_addr, p_source, len_to_end);
 601              		.loc 1 310 9 view .LVU203
 602 002a 2A46     		mov	r2, r5
 603 002c 3946     		mov	r1, r7
 604              	.LVL46:
 605              		.loc 1 310 9 is_stmt 0 view .LVU204
 606 002e FFF7FEFF 		bl	memcpy
 607              	.LVL47:
 311:ACE-ECF/Algorithm/src/fifo.c ****         p_fifo->p_write_addr += len_to_end;
 608              		.loc 1 311 9 is_stmt 1 view .LVU205
 609              		.loc 1 311 30 is_stmt 0 view .LVU206
 610 0032 6369     		ldr	r3, [r4, #20]
 611 0034 2B44     		add	r3, r3, r5
 612 0036 6361     		str	r3, [r4, #20]
 613              	.LVL48:
 614              	.L28:
 312:ACE-ECF/Algorithm/src/fifo.c ****     }
 313:ACE-ECF/Algorithm/src/fifo.c ****     else //rollback
 314:ACE-ECF/Algorithm/src/fifo.c ****     {
 315:ACE-ECF/Algorithm/src/fifo.c ****         len_from_start = len - len_to_end;
 316:ACE-ECF/Algorithm/src/fifo.c ****         memcpy(p_fifo->p_write_addr, p_source, len_to_end);
 317:ACE-ECF/Algorithm/src/fifo.c ****         memcpy(p_fifo->p_start_addr, p_source + len_to_end, len_from_start);
 318:ACE-ECF/Algorithm/src/fifo.c ****         p_fifo->p_write_addr = p_fifo->p_start_addr + len_from_start;
 319:ACE-ECF/Algorithm/src/fifo.c ****     }
 320:ACE-ECF/Algorithm/src/fifo.c **** 
 321:ACE-ECF/Algorithm/src/fifo.c ****     p_fifo->free_num -= len;
 615              		.loc 1 321 5 is_stmt 1 view .LVU207
 616              		.loc 1 321 22 is_stmt 0 view .LVU208
 617 0038 A368     		ldr	r3, [r4, #8]
 618 003a 5B1B     		subs	r3, r3, r5
 619 003c A360     		str	r3, [r4, #8]
 322:ACE-ECF/Algorithm/src/fifo.c ****     p_fifo->used_num += len;
 620              		.loc 1 322 5 is_stmt 1 view .LVU209
 621              		.loc 1 322 22 is_stmt 0 view .LVU210
 622 003e E368     		ldr	r3, [r4, #12]
 623 0040 2B44     		add	r3, r3, r5
 624 0042 E360     		str	r3, [r4, #12]
 323:ACE-ECF/Algorithm/src/fifo.c ****     retval = len;
 625              		.loc 1 323 5 is_stmt 1 view .LVU211
 626              	.LVL49:
 324:ACE-ECF/Algorithm/src/fifo.c **** 
 325:ACE-ECF/Algorithm/src/fifo.c ****     return retval;
 627              		.loc 1 325 5 view .LVU212
 628              	.L24:
 326:ACE-ECF/Algorithm/src/fifo.c **** }
ARM GAS  C:\Users\28212\AppData\Local\Temp\ccAB46Z4.s 			page 21


 629              		.loc 1 326 1 is_stmt 0 view .LVU213
 630 0044 2846     		mov	r0, r5
 631 0046 BDE8F081 		pop	{r4, r5, r6, r7, r8, pc}
 632              	.LVL50:
 633              	.L27:
 315:ACE-ECF/Algorithm/src/fifo.c ****         memcpy(p_fifo->p_write_addr, p_source, len_to_end);
 634              		.loc 1 315 9 is_stmt 1 view .LVU214
 315:ACE-ECF/Algorithm/src/fifo.c ****         memcpy(p_fifo->p_write_addr, p_source, len_to_end);
 635              		.loc 1 315 24 is_stmt 0 view .LVU215
 636 004a A5EB0608 		sub	r8, r5, r6
 637              	.LVL51:
 316:ACE-ECF/Algorithm/src/fifo.c ****         memcpy(p_fifo->p_start_addr, p_source + len_to_end, len_from_start);
 638              		.loc 1 316 9 is_stmt 1 view .LVU216
 639 004e 3246     		mov	r2, r6
 640 0050 3946     		mov	r1, r7
 641              	.LVL52:
 316:ACE-ECF/Algorithm/src/fifo.c ****         memcpy(p_fifo->p_start_addr, p_source + len_to_end, len_from_start);
 642              		.loc 1 316 9 is_stmt 0 view .LVU217
 643 0052 FFF7FEFF 		bl	memcpy
 644              	.LVL53:
 317:ACE-ECF/Algorithm/src/fifo.c ****         p_fifo->p_write_addr = p_fifo->p_start_addr + len_from_start;
 645              		.loc 1 317 9 is_stmt 1 view .LVU218
 646 0056 4246     		mov	r2, r8
 647 0058 B919     		adds	r1, r7, r6
 648 005a 2068     		ldr	r0, [r4]
 649 005c FFF7FEFF 		bl	memcpy
 650              	.LVL54:
 318:ACE-ECF/Algorithm/src/fifo.c ****     }
 651              		.loc 1 318 9 view .LVU219
 318:ACE-ECF/Algorithm/src/fifo.c ****     }
 652              		.loc 1 318 38 is_stmt 0 view .LVU220
 653 0060 2368     		ldr	r3, [r4]
 318:ACE-ECF/Algorithm/src/fifo.c ****     }
 654              		.loc 1 318 53 view .LVU221
 655 0062 4344     		add	r3, r3, r8
 318:ACE-ECF/Algorithm/src/fifo.c ****     }
 656              		.loc 1 318 30 view .LVU222
 657 0064 6361     		str	r3, [r4, #20]
 658 0066 E7E7     		b	.L28
 659              	.LVL55:
 660              	.L29:
 291:ACE-ECF/Algorithm/src/fifo.c ****     }
 661              		.loc 1 291 16 view .LVU223
 662 0068 4FF0FF35 		mov	r5, #-1
 663 006c EAE7     		b	.L24
 664              		.cfi_endproc
 665              	.LFE164:
 667              		.section	.text.fifo_s_get,"ax",%progbits
 668              		.align	1
 669              		.global	fifo_s_get
 670              		.syntax unified
 671              		.thumb
 672              		.thumb_func
 674              	fifo_s_get:
 675              	.LVL56:
 676              	.LFB165:
 327:ACE-ECF/Algorithm/src/fifo.c **** 
ARM GAS  C:\Users\28212\AppData\Local\Temp\ccAB46Z4.s 			page 22


 328:ACE-ECF/Algorithm/src/fifo.c **** //******************************************************************************************
 329:ACE-ECF/Algorithm/src/fifo.c **** //
 330:ACE-ECF/Algorithm/src/fifo.c **** //! \brief  Get an element from FIFO(in single mode).
 331:ACE-ECF/Algorithm/src/fifo.c **** //!
 332:ACE-ECF/Algorithm/src/fifo.c **** //! \param  [in]  p_fifo is the pointer of valid FIFO.
 333:ACE-ECF/Algorithm/src/fifo.c **** //!
 334:ACE-ECF/Algorithm/src/fifo.c **** //! \retval the data element of FIFO.
 335:ACE-ECF/Algorithm/src/fifo.c **** //
 336:ACE-ECF/Algorithm/src/fifo.c **** //******************************************************************************************
 337:ACE-ECF/Algorithm/src/fifo.c **** char fifo_s_get(fifo_s_t *p_fifo)
 338:ACE-ECF/Algorithm/src/fifo.c **** {
 677              		.loc 1 338 1 is_stmt 1 view -0
 678              		.cfi_startproc
 679              		@ args = 0, pretend = 0, frame = 0
 680              		@ frame_needed = 0, uses_anonymous_args = 0
 681              		@ link register save eliminated.
 682              		.loc 1 338 1 is_stmt 0 view .LVU225
 683 0000 0346     		mov	r3, r0
 339:ACE-ECF/Algorithm/src/fifo.c ****     char retval = 0;
 684              		.loc 1 339 5 is_stmt 1 view .LVU226
 685              	.LVL57:
 340:ACE-ECF/Algorithm/src/fifo.c **** 
 341:ACE-ECF/Algorithm/src/fifo.c ****     //! Check input parameters.
 342:ACE-ECF/Algorithm/src/fifo.c ****     ASSERT(p_fifo);
 686              		.loc 1 342 19 view .LVU227
 343:ACE-ECF/Algorithm/src/fifo.c **** 
 344:ACE-ECF/Algorithm/src/fifo.c ****     //TODO:
 345:ACE-ECF/Algorithm/src/fifo.c ****     if (0 == p_fifo->used_num)
 687              		.loc 1 345 5 view .LVU228
 688              		.loc 1 345 20 is_stmt 0 view .LVU229
 689 0002 C268     		ldr	r2, [r0, #12]
 690              		.loc 1 345 8 view .LVU230
 691 0004 B2B1     		cbz	r2, .L35
 346:ACE-ECF/Algorithm/src/fifo.c ****     {
 347:ACE-ECF/Algorithm/src/fifo.c ****         return 0;
 348:ACE-ECF/Algorithm/src/fifo.c ****     }
 349:ACE-ECF/Algorithm/src/fifo.c **** 
 350:ACE-ECF/Algorithm/src/fifo.c ****     MUTEX_LOCK(p_fifo->mutex);
 692              		.loc 1 350 5 is_stmt 1 view .LVU231
 693              		.loc 1 350 5 view .LVU232
 694              	.LBB70:
 695              	.LBI70:
 140:Drivers/CMSIS/Include/cmsis_gcc.h **** {
 696              		.loc 2 140 27 view .LVU233
 697              	.LBB71:
 698              		.loc 2 142 3 view .LVU234
 699              		.syntax unified
 700              	@ 142 "Drivers/CMSIS/Include/cmsis_gcc.h" 1
 701 0006 72B6     		cpsid i
 702              	@ 0 "" 2
 703              		.thumb
 704              		.syntax unified
 705              	.LBE71:
 706              	.LBE70:
 707              		.loc 1 350 5 view .LVU235
 351:ACE-ECF/Algorithm/src/fifo.c **** 
 352:ACE-ECF/Algorithm/src/fifo.c ****     if (0 == p_fifo->used_num)
ARM GAS  C:\Users\28212\AppData\Local\Temp\ccAB46Z4.s 			page 23


 708              		.loc 1 352 5 view .LVU236
 709              		.loc 1 352 20 is_stmt 0 view .LVU237
 710 0008 C268     		ldr	r2, [r0, #12]
 711              		.loc 1 352 8 view .LVU238
 712 000a 82B1     		cbz	r2, .L36
 353:ACE-ECF/Algorithm/src/fifo.c ****     {
 354:ACE-ECF/Algorithm/src/fifo.c ****         MUTEX_UNLOCK(p_fifo->mutex);
 355:ACE-ECF/Algorithm/src/fifo.c ****         return 0;
 356:ACE-ECF/Algorithm/src/fifo.c ****     }
 357:ACE-ECF/Algorithm/src/fifo.c **** 
 358:ACE-ECF/Algorithm/src/fifo.c ****     if (p_fifo->p_read_addr > p_fifo->p_end_addr)
 713              		.loc 1 358 5 is_stmt 1 view .LVU239
 714              		.loc 1 358 15 is_stmt 0 view .LVU240
 715 000c 0069     		ldr	r0, [r0, #16]
 716              	.LVL58:
 717              		.loc 1 358 37 view .LVU241
 718 000e 5968     		ldr	r1, [r3, #4]
 719              		.loc 1 358 8 view .LVU242
 720 0010 8842     		cmp	r0, r1
 721 0012 01D9     		bls	.L34
 359:ACE-ECF/Algorithm/src/fifo.c ****     {
 360:ACE-ECF/Algorithm/src/fifo.c ****         p_fifo->p_read_addr = p_fifo->p_start_addr;
 722              		.loc 1 360 9 is_stmt 1 view .LVU243
 723              		.loc 1 360 37 is_stmt 0 view .LVU244
 724 0014 1968     		ldr	r1, [r3]
 725              		.loc 1 360 29 view .LVU245
 726 0016 1961     		str	r1, [r3, #16]
 727              	.L34:
 361:ACE-ECF/Algorithm/src/fifo.c ****     }
 362:ACE-ECF/Algorithm/src/fifo.c **** 
 363:ACE-ECF/Algorithm/src/fifo.c ****     retval = *p_fifo->p_read_addr;
 728              		.loc 1 363 5 is_stmt 1 view .LVU246
 729              		.loc 1 363 12 is_stmt 0 view .LVU247
 730 0018 1969     		ldr	r1, [r3, #16]
 731 001a 11F8010B 		ldrb	r0, [r1], #1	@ zero_extendqisi2
 732              	.LVL59:
 364:ACE-ECF/Algorithm/src/fifo.c ****     // Update information
 365:ACE-ECF/Algorithm/src/fifo.c ****     p_fifo->p_read_addr++;
 733              		.loc 1 365 5 is_stmt 1 view .LVU248
 734              		.loc 1 365 24 is_stmt 0 view .LVU249
 735 001e 1961     		str	r1, [r3, #16]
 366:ACE-ECF/Algorithm/src/fifo.c ****     p_fifo->free_num++;
 736              		.loc 1 366 5 is_stmt 1 view .LVU250
 737              		.loc 1 366 11 is_stmt 0 view .LVU251
 738 0020 9968     		ldr	r1, [r3, #8]
 739              		.loc 1 366 21 view .LVU252
 740 0022 0131     		adds	r1, r1, #1
 741 0024 9960     		str	r1, [r3, #8]
 367:ACE-ECF/Algorithm/src/fifo.c ****     p_fifo->used_num--;
 742              		.loc 1 367 5 is_stmt 1 view .LVU253
 743              		.loc 1 367 21 is_stmt 0 view .LVU254
 744 0026 013A     		subs	r2, r2, #1
 745 0028 DA60     		str	r2, [r3, #12]
 368:ACE-ECF/Algorithm/src/fifo.c ****     MUTEX_UNLOCK(p_fifo->mutex);
 746              		.loc 1 368 5 is_stmt 1 view .LVU255
 747              		.loc 1 368 5 view .LVU256
 748              	.LBB72:
ARM GAS  C:\Users\28212\AppData\Local\Temp\ccAB46Z4.s 			page 24


 749              	.LBI72:
 129:Drivers/CMSIS/Include/cmsis_gcc.h **** {
 750              		.loc 2 129 27 view .LVU257
 751              	.LBB73:
 131:Drivers/CMSIS/Include/cmsis_gcc.h **** }
 752              		.loc 2 131 3 view .LVU258
 753              		.syntax unified
 754              	@ 131 "Drivers/CMSIS/Include/cmsis_gcc.h" 1
 755 002a 62B6     		cpsie i
 756              	@ 0 "" 2
 757              		.thumb
 758              		.syntax unified
 759              	.LBE73:
 760              	.LBE72:
 761              		.loc 1 368 5 view .LVU259
 369:ACE-ECF/Algorithm/src/fifo.c **** 
 370:ACE-ECF/Algorithm/src/fifo.c ****     return (retval);
 762              		.loc 1 370 5 view .LVU260
 763              		.loc 1 370 12 is_stmt 0 view .LVU261
 764 002c 7047     		bx	lr
 765              	.LVL60:
 766              	.L36:
 354:ACE-ECF/Algorithm/src/fifo.c ****         return 0;
 767              		.loc 1 354 9 is_stmt 1 view .LVU262
 354:ACE-ECF/Algorithm/src/fifo.c ****         return 0;
 768              		.loc 1 354 9 view .LVU263
 769              	.LBB74:
 770              	.LBI74:
 129:Drivers/CMSIS/Include/cmsis_gcc.h **** {
 771              		.loc 2 129 27 view .LVU264
 772              	.LBB75:
 131:Drivers/CMSIS/Include/cmsis_gcc.h **** }
 773              		.loc 2 131 3 view .LVU265
 774              		.syntax unified
 775              	@ 131 "Drivers/CMSIS/Include/cmsis_gcc.h" 1
 776 002e 62B6     		cpsie i
 777              	@ 0 "" 2
 778              		.thumb
 779              		.syntax unified
 780              	.LBE75:
 781              	.LBE74:
 354:ACE-ECF/Algorithm/src/fifo.c ****         return 0;
 782              		.loc 1 354 9 view .LVU266
 355:ACE-ECF/Algorithm/src/fifo.c ****     }
 783              		.loc 1 355 9 view .LVU267
 355:ACE-ECF/Algorithm/src/fifo.c ****     }
 784              		.loc 1 355 16 is_stmt 0 view .LVU268
 785 0030 0020     		movs	r0, #0
 786              	.LVL61:
 355:ACE-ECF/Algorithm/src/fifo.c ****     }
 787              		.loc 1 355 16 view .LVU269
 788 0032 7047     		bx	lr
 789              	.LVL62:
 790              	.L35:
 347:ACE-ECF/Algorithm/src/fifo.c ****     }
 791              		.loc 1 347 16 view .LVU270
 792 0034 0020     		movs	r0, #0
ARM GAS  C:\Users\28212\AppData\Local\Temp\ccAB46Z4.s 			page 25


 793              	.LVL63:
 371:ACE-ECF/Algorithm/src/fifo.c **** }
 794              		.loc 1 371 1 view .LVU271
 795 0036 7047     		bx	lr
 796              		.cfi_endproc
 797              	.LFE165:
 799              		.section	.text.fifo_s_gets,"ax",%progbits
 800              		.align	1
 801              		.global	fifo_s_gets
 802              		.syntax unified
 803              		.thumb
 804              		.thumb_func
 806              	fifo_s_gets:
 807              	.LVL64:
 808              	.LFB166:
 372:ACE-ECF/Algorithm/src/fifo.c **** 
 373:ACE-ECF/Algorithm/src/fifo.c **** //******************************************************************************************
 374:ACE-ECF/Algorithm/src/fifo.c **** //
 375:ACE-ECF/Algorithm/src/fifo.c **** //! \brief  Get some element from FIFO(in single mode).
 376:ACE-ECF/Algorithm/src/fifo.c **** //!
 377:ACE-ECF/Algorithm/src/fifo.c **** //! \param  [in]  p_fifo is the pointer of valid FIFO.
 378:ACE-ECF/Algorithm/src/fifo.c **** //!
 379:ACE-ECF/Algorithm/src/fifo.c **** //! \retval the number of really read data.
 380:ACE-ECF/Algorithm/src/fifo.c **** //
 381:ACE-ECF/Algorithm/src/fifo.c **** //******************************************************************************************
 382:ACE-ECF/Algorithm/src/fifo.c **** int fifo_s_gets(fifo_s_t *p_fifo, char *p_dest, int len)
 383:ACE-ECF/Algorithm/src/fifo.c **** {
 809              		.loc 1 383 1 is_stmt 1 view -0
 810              		.cfi_startproc
 811              		@ args = 0, pretend = 0, frame = 0
 812              		@ frame_needed = 0, uses_anonymous_args = 0
 813              		.loc 1 383 1 is_stmt 0 view .LVU273
 814 0000 2DE9F041 		push	{r4, r5, r6, r7, r8, lr}
 815              	.LCFI4:
 816              		.cfi_def_cfa_offset 24
 817              		.cfi_offset 4, -24
 818              		.cfi_offset 5, -20
 819              		.cfi_offset 6, -16
 820              		.cfi_offset 7, -12
 821              		.cfi_offset 8, -8
 822              		.cfi_offset 14, -4
 384:ACE-ECF/Algorithm/src/fifo.c ****     int retval;
 823              		.loc 1 384 5 is_stmt 1 view .LVU274
 385:ACE-ECF/Algorithm/src/fifo.c ****     int len_to_end;
 824              		.loc 1 385 5 view .LVU275
 386:ACE-ECF/Algorithm/src/fifo.c ****     int len_from_start;
 825              		.loc 1 386 5 view .LVU276
 387:ACE-ECF/Algorithm/src/fifo.c **** 
 388:ACE-ECF/Algorithm/src/fifo.c ****     ASSERT(p_fifo);
 826              		.loc 1 388 19 view .LVU277
 389:ACE-ECF/Algorithm/src/fifo.c **** 
 390:ACE-ECF/Algorithm/src/fifo.c ****     if (NULL == p_dest)
 827              		.loc 1 390 5 view .LVU278
 828              		.loc 1 390 8 is_stmt 0 view .LVU279
 829 0004 0029     		cmp	r1, #0
 830 0006 36D0     		beq	.L43
 831 0008 0446     		mov	r4, r0
ARM GAS  C:\Users\28212\AppData\Local\Temp\ccAB46Z4.s 			page 26


 832 000a 0F46     		mov	r7, r1
 391:ACE-ECF/Algorithm/src/fifo.c ****     {
 392:ACE-ECF/Algorithm/src/fifo.c ****         return -1;
 393:ACE-ECF/Algorithm/src/fifo.c ****     }
 394:ACE-ECF/Algorithm/src/fifo.c **** 
 395:ACE-ECF/Algorithm/src/fifo.c ****     if (0 == p_fifo->used_num)
 833              		.loc 1 395 5 is_stmt 1 view .LVU280
 834              		.loc 1 395 20 is_stmt 0 view .LVU281
 835 000c C568     		ldr	r5, [r0, #12]
 836              		.loc 1 395 8 view .LVU282
 837 000e F5B1     		cbz	r5, .L37
 396:ACE-ECF/Algorithm/src/fifo.c ****     {
 397:ACE-ECF/Algorithm/src/fifo.c ****         return 0;
 398:ACE-ECF/Algorithm/src/fifo.c ****     }
 399:ACE-ECF/Algorithm/src/fifo.c **** 
 400:ACE-ECF/Algorithm/src/fifo.c ****     MUTEX_LOCK(p_fifo->mutex);
 838              		.loc 1 400 5 is_stmt 1 view .LVU283
 839              		.loc 1 400 5 view .LVU284
 840              	.LBB76:
 841              	.LBI76:
 140:Drivers/CMSIS/Include/cmsis_gcc.h **** {
 842              		.loc 2 140 27 view .LVU285
 843              	.LBB77:
 844              		.loc 2 142 3 view .LVU286
 845              		.syntax unified
 846              	@ 142 "Drivers/CMSIS/Include/cmsis_gcc.h" 1
 847 0010 72B6     		cpsid i
 848              	@ 0 "" 2
 849              		.thumb
 850              		.syntax unified
 851              	.LBE77:
 852              	.LBE76:
 853              		.loc 1 400 5 view .LVU287
 401:ACE-ECF/Algorithm/src/fifo.c **** 
 402:ACE-ECF/Algorithm/src/fifo.c ****     if (0 == p_fifo->used_num)
 854              		.loc 1 402 5 view .LVU288
 855              		.loc 1 402 20 is_stmt 0 view .LVU289
 856 0012 C568     		ldr	r5, [r0, #12]
 857              		.loc 1 402 8 view .LVU290
 858 0014 F5B1     		cbz	r5, .L45
 403:ACE-ECF/Algorithm/src/fifo.c ****     {
 404:ACE-ECF/Algorithm/src/fifo.c ****         MUTEX_UNLOCK(p_fifo->mutex);
 405:ACE-ECF/Algorithm/src/fifo.c ****         return 0;
 406:ACE-ECF/Algorithm/src/fifo.c ****     }
 407:ACE-ECF/Algorithm/src/fifo.c **** 
 408:ACE-ECF/Algorithm/src/fifo.c ****     if (p_fifo->p_read_addr > p_fifo->p_end_addr)
 859              		.loc 1 408 5 is_stmt 1 view .LVU291
 860              		.loc 1 408 15 is_stmt 0 view .LVU292
 861 0016 0369     		ldr	r3, [r0, #16]
 862              		.loc 1 408 37 view .LVU293
 863 0018 4668     		ldr	r6, [r0, #4]
 864              		.loc 1 408 8 view .LVU294
 865 001a B342     		cmp	r3, r6
 866 001c 01D9     		bls	.L40
 409:ACE-ECF/Algorithm/src/fifo.c ****     {
 410:ACE-ECF/Algorithm/src/fifo.c ****         p_fifo->p_read_addr = p_fifo->p_start_addr;
 867              		.loc 1 410 9 is_stmt 1 view .LVU295
ARM GAS  C:\Users\28212\AppData\Local\Temp\ccAB46Z4.s 			page 27


 868              		.loc 1 410 37 is_stmt 0 view .LVU296
 869 001e 0368     		ldr	r3, [r0]
 870              		.loc 1 410 29 view .LVU297
 871 0020 0361     		str	r3, [r0, #16]
 872              	.L40:
 411:ACE-ECF/Algorithm/src/fifo.c ****     }
 412:ACE-ECF/Algorithm/src/fifo.c **** 
 413:ACE-ECF/Algorithm/src/fifo.c ****     len = (len < p_fifo->used_num) ? len : p_fifo->used_num;
 873              		.loc 1 413 5 is_stmt 1 view .LVU298
 874              		.loc 1 413 9 is_stmt 0 view .LVU299
 875 0022 9542     		cmp	r5, r2
 876 0024 A8BF     		it	ge
 877 0026 1546     		movge	r5, r2
 878              	.LVL65:
 414:ACE-ECF/Algorithm/src/fifo.c ****     len_to_end = p_fifo->p_end_addr - p_fifo->p_read_addr + 1;
 879              		.loc 1 414 5 is_stmt 1 view .LVU300
 880              		.loc 1 414 45 is_stmt 0 view .LVU301
 881 0028 2169     		ldr	r1, [r4, #16]
 882              	.LVL66:
 883              		.loc 1 414 37 view .LVU302
 884 002a 761A     		subs	r6, r6, r1
 885              		.loc 1 414 16 view .LVU303
 886 002c 0136     		adds	r6, r6, #1
 887              	.LVL67:
 415:ACE-ECF/Algorithm/src/fifo.c **** 
 416:ACE-ECF/Algorithm/src/fifo.c ****     if (len_to_end >= len) //no rollback
 888              		.loc 1 416 5 is_stmt 1 view .LVU304
 889              		.loc 1 416 8 is_stmt 0 view .LVU305
 890 002e B542     		cmp	r5, r6
 891 0030 12DC     		bgt	.L41
 417:ACE-ECF/Algorithm/src/fifo.c ****     {
 418:ACE-ECF/Algorithm/src/fifo.c ****         len_to_end = len;
 892              		.loc 1 418 9 is_stmt 1 view .LVU306
 893              	.LVL68:
 419:ACE-ECF/Algorithm/src/fifo.c ****         memcpy(p_dest, p_fifo->p_read_addr, len_to_end);
 894              		.loc 1 419 9 view .LVU307
 895 0032 2A46     		mov	r2, r5
 896 0034 3846     		mov	r0, r7
 897              	.LVL69:
 898              		.loc 1 419 9 is_stmt 0 view .LVU308
 899 0036 FFF7FEFF 		bl	memcpy
 900              	.LVL70:
 420:ACE-ECF/Algorithm/src/fifo.c ****         p_fifo->p_read_addr += len_to_end;
 901              		.loc 1 420 9 is_stmt 1 view .LVU309
 902              		.loc 1 420 29 is_stmt 0 view .LVU310
 903 003a 2369     		ldr	r3, [r4, #16]
 904 003c 2B44     		add	r3, r3, r5
 905 003e 2361     		str	r3, [r4, #16]
 906              	.LVL71:
 907              	.L42:
 421:ACE-ECF/Algorithm/src/fifo.c ****     }
 422:ACE-ECF/Algorithm/src/fifo.c ****     else //rollback
 423:ACE-ECF/Algorithm/src/fifo.c ****     {
 424:ACE-ECF/Algorithm/src/fifo.c ****         len_from_start = len - len_to_end;
 425:ACE-ECF/Algorithm/src/fifo.c ****         memcpy(p_dest, p_fifo->p_read_addr, len_to_end);
 426:ACE-ECF/Algorithm/src/fifo.c ****         memcpy(p_dest + len_to_end, p_fifo->p_start_addr, len_from_start);
 427:ACE-ECF/Algorithm/src/fifo.c ****         p_fifo->p_read_addr = p_fifo->p_start_addr + len_from_start;
ARM GAS  C:\Users\28212\AppData\Local\Temp\ccAB46Z4.s 			page 28


 428:ACE-ECF/Algorithm/src/fifo.c ****     }
 429:ACE-ECF/Algorithm/src/fifo.c **** 
 430:ACE-ECF/Algorithm/src/fifo.c ****     p_fifo->free_num += len;
 908              		.loc 1 430 5 is_stmt 1 view .LVU311
 909              		.loc 1 430 22 is_stmt 0 view .LVU312
 910 0040 A368     		ldr	r3, [r4, #8]
 911 0042 2B44     		add	r3, r3, r5
 912 0044 A360     		str	r3, [r4, #8]
 431:ACE-ECF/Algorithm/src/fifo.c ****     p_fifo->used_num -= len;
 913              		.loc 1 431 5 is_stmt 1 view .LVU313
 914              		.loc 1 431 22 is_stmt 0 view .LVU314
 915 0046 E368     		ldr	r3, [r4, #12]
 916 0048 5B1B     		subs	r3, r3, r5
 917 004a E360     		str	r3, [r4, #12]
 432:ACE-ECF/Algorithm/src/fifo.c ****     retval = len;
 918              		.loc 1 432 5 is_stmt 1 view .LVU315
 919              	.LVL72:
 433:ACE-ECF/Algorithm/src/fifo.c ****     MUTEX_UNLOCK(p_fifo->mutex);
 920              		.loc 1 433 5 view .LVU316
 921              		.loc 1 433 5 view .LVU317
 922              	.LBB78:
 923              	.LBI78:
 129:Drivers/CMSIS/Include/cmsis_gcc.h **** {
 924              		.loc 2 129 27 view .LVU318
 925              	.LBB79:
 131:Drivers/CMSIS/Include/cmsis_gcc.h **** }
 926              		.loc 2 131 3 view .LVU319
 927              		.syntax unified
 928              	@ 131 "Drivers/CMSIS/Include/cmsis_gcc.h" 1
 929 004c 62B6     		cpsie i
 930              	@ 0 "" 2
 931              		.thumb
 932              		.syntax unified
 933              	.LBE79:
 934              	.LBE78:
 935              		.loc 1 433 5 view .LVU320
 434:ACE-ECF/Algorithm/src/fifo.c **** 
 435:ACE-ECF/Algorithm/src/fifo.c ****     return retval;
 936              		.loc 1 435 5 view .LVU321
 937              	.LVL73:
 938              	.L37:
 436:ACE-ECF/Algorithm/src/fifo.c **** }
 939              		.loc 1 436 1 is_stmt 0 view .LVU322
 940 004e 2846     		mov	r0, r5
 941 0050 BDE8F081 		pop	{r4, r5, r6, r7, r8, pc}
 942              	.LVL74:
 943              	.L45:
 404:ACE-ECF/Algorithm/src/fifo.c ****         return 0;
 944              		.loc 1 404 9 is_stmt 1 view .LVU323
 404:ACE-ECF/Algorithm/src/fifo.c ****         return 0;
 945              		.loc 1 404 9 view .LVU324
 946              	.LBB80:
 947              	.LBI80:
 129:Drivers/CMSIS/Include/cmsis_gcc.h **** {
 948              		.loc 2 129 27 view .LVU325
 949              	.LBB81:
 131:Drivers/CMSIS/Include/cmsis_gcc.h **** }
ARM GAS  C:\Users\28212\AppData\Local\Temp\ccAB46Z4.s 			page 29


 950              		.loc 2 131 3 view .LVU326
 951              		.syntax unified
 952              	@ 131 "Drivers/CMSIS/Include/cmsis_gcc.h" 1
 953 0054 62B6     		cpsie i
 954              	@ 0 "" 2
 955              		.thumb
 956              		.syntax unified
 957              	.LBE81:
 958              	.LBE80:
 404:ACE-ECF/Algorithm/src/fifo.c ****         return 0;
 959              		.loc 1 404 9 view .LVU327
 405:ACE-ECF/Algorithm/src/fifo.c ****     }
 960              		.loc 1 405 9 view .LVU328
 405:ACE-ECF/Algorithm/src/fifo.c ****     }
 961              		.loc 1 405 16 is_stmt 0 view .LVU329
 962 0056 FAE7     		b	.L37
 963              	.LVL75:
 964              	.L41:
 424:ACE-ECF/Algorithm/src/fifo.c ****         memcpy(p_dest, p_fifo->p_read_addr, len_to_end);
 965              		.loc 1 424 9 is_stmt 1 view .LVU330
 424:ACE-ECF/Algorithm/src/fifo.c ****         memcpy(p_dest, p_fifo->p_read_addr, len_to_end);
 966              		.loc 1 424 24 is_stmt 0 view .LVU331
 967 0058 A5EB0608 		sub	r8, r5, r6
 968              	.LVL76:
 425:ACE-ECF/Algorithm/src/fifo.c ****         memcpy(p_dest + len_to_end, p_fifo->p_start_addr, len_from_start);
 969              		.loc 1 425 9 is_stmt 1 view .LVU332
 970 005c 3246     		mov	r2, r6
 971 005e 3846     		mov	r0, r7
 972              	.LVL77:
 425:ACE-ECF/Algorithm/src/fifo.c ****         memcpy(p_dest + len_to_end, p_fifo->p_start_addr, len_from_start);
 973              		.loc 1 425 9 is_stmt 0 view .LVU333
 974 0060 FFF7FEFF 		bl	memcpy
 975              	.LVL78:
 426:ACE-ECF/Algorithm/src/fifo.c ****         p_fifo->p_read_addr = p_fifo->p_start_addr + len_from_start;
 976              		.loc 1 426 9 is_stmt 1 view .LVU334
 977 0064 4246     		mov	r2, r8
 978 0066 2168     		ldr	r1, [r4]
 979 0068 B819     		adds	r0, r7, r6
 980 006a FFF7FEFF 		bl	memcpy
 981              	.LVL79:
 427:ACE-ECF/Algorithm/src/fifo.c ****     }
 982              		.loc 1 427 9 view .LVU335
 427:ACE-ECF/Algorithm/src/fifo.c ****     }
 983              		.loc 1 427 37 is_stmt 0 view .LVU336
 984 006e 2368     		ldr	r3, [r4]
 427:ACE-ECF/Algorithm/src/fifo.c ****     }
 985              		.loc 1 427 52 view .LVU337
 986 0070 4344     		add	r3, r3, r8
 427:ACE-ECF/Algorithm/src/fifo.c ****     }
 987              		.loc 1 427 29 view .LVU338
 988 0072 2361     		str	r3, [r4, #16]
 989 0074 E4E7     		b	.L42
 990              	.LVL80:
 991              	.L43:
 392:ACE-ECF/Algorithm/src/fifo.c ****     }
 992              		.loc 1 392 16 view .LVU339
 993 0076 4FF0FF35 		mov	r5, #-1
ARM GAS  C:\Users\28212\AppData\Local\Temp\ccAB46Z4.s 			page 30


 994 007a E8E7     		b	.L37
 995              		.cfi_endproc
 996              	.LFE166:
 998              		.section	.text.fifo_s_gets_noprotect,"ax",%progbits
 999              		.align	1
 1000              		.global	fifo_s_gets_noprotect
 1001              		.syntax unified
 1002              		.thumb
 1003              		.thumb_func
 1005              	fifo_s_gets_noprotect:
 1006              	.LVL81:
 1007              	.LFB167:
 437:ACE-ECF/Algorithm/src/fifo.c **** 
 438:ACE-ECF/Algorithm/src/fifo.c **** //******************************************************************************************
 439:ACE-ECF/Algorithm/src/fifo.c **** //
 440:ACE-ECF/Algorithm/src/fifo.c **** //! \brief  Get some element from FIFO(in single mode).
 441:ACE-ECF/Algorithm/src/fifo.c **** //!
 442:ACE-ECF/Algorithm/src/fifo.c **** //! \param  [in]  p_fifo is the pointer of valid FIFO.
 443:ACE-ECF/Algorithm/src/fifo.c **** //!
 444:ACE-ECF/Algorithm/src/fifo.c **** //! \retval the number of really read data.
 445:ACE-ECF/Algorithm/src/fifo.c **** //
 446:ACE-ECF/Algorithm/src/fifo.c **** //******************************************************************************************
 447:ACE-ECF/Algorithm/src/fifo.c **** int fifo_s_gets_noprotect(fifo_s_t *p_fifo, char *p_dest, int len)
 448:ACE-ECF/Algorithm/src/fifo.c **** {
 1008              		.loc 1 448 1 is_stmt 1 view -0
 1009              		.cfi_startproc
 1010              		@ args = 0, pretend = 0, frame = 0
 1011              		@ frame_needed = 0, uses_anonymous_args = 0
 1012              		.loc 1 448 1 is_stmt 0 view .LVU341
 1013 0000 2DE9F041 		push	{r4, r5, r6, r7, r8, lr}
 1014              	.LCFI5:
 1015              		.cfi_def_cfa_offset 24
 1016              		.cfi_offset 4, -24
 1017              		.cfi_offset 5, -20
 1018              		.cfi_offset 6, -16
 1019              		.cfi_offset 7, -12
 1020              		.cfi_offset 8, -8
 1021              		.cfi_offset 14, -4
 449:ACE-ECF/Algorithm/src/fifo.c ****     int retval;
 1022              		.loc 1 449 5 is_stmt 1 view .LVU342
 450:ACE-ECF/Algorithm/src/fifo.c ****     int len_to_end;
 1023              		.loc 1 450 5 view .LVU343
 451:ACE-ECF/Algorithm/src/fifo.c ****     int len_from_start;
 1024              		.loc 1 451 5 view .LVU344
 452:ACE-ECF/Algorithm/src/fifo.c **** 
 453:ACE-ECF/Algorithm/src/fifo.c ****     ASSERT(p_fifo);
 1025              		.loc 1 453 19 view .LVU345
 454:ACE-ECF/Algorithm/src/fifo.c **** 
 455:ACE-ECF/Algorithm/src/fifo.c ****     if (NULL == p_dest)
 1026              		.loc 1 455 5 view .LVU346
 1027              		.loc 1 455 8 is_stmt 0 view .LVU347
 1028 0004 81B3     		cbz	r1, .L51
 1029 0006 0446     		mov	r4, r0
 1030 0008 0F46     		mov	r7, r1
 456:ACE-ECF/Algorithm/src/fifo.c ****     {
 457:ACE-ECF/Algorithm/src/fifo.c ****         return -1;
 458:ACE-ECF/Algorithm/src/fifo.c ****     }
ARM GAS  C:\Users\28212\AppData\Local\Temp\ccAB46Z4.s 			page 31


 459:ACE-ECF/Algorithm/src/fifo.c **** 
 460:ACE-ECF/Algorithm/src/fifo.c ****     if (0 == p_fifo->used_num)
 1031              		.loc 1 460 5 is_stmt 1 view .LVU348
 1032              		.loc 1 460 20 is_stmt 0 view .LVU349
 1033 000a C568     		ldr	r5, [r0, #12]
 1034              		.loc 1 460 8 view .LVU350
 1035 000c D5B1     		cbz	r5, .L46
 461:ACE-ECF/Algorithm/src/fifo.c ****     {
 462:ACE-ECF/Algorithm/src/fifo.c ****         return 0;
 463:ACE-ECF/Algorithm/src/fifo.c ****     }
 464:ACE-ECF/Algorithm/src/fifo.c **** 
 465:ACE-ECF/Algorithm/src/fifo.c ****     if (p_fifo->p_read_addr > p_fifo->p_end_addr)
 1036              		.loc 1 465 5 is_stmt 1 view .LVU351
 1037              		.loc 1 465 15 is_stmt 0 view .LVU352
 1038 000e 0369     		ldr	r3, [r0, #16]
 1039              		.loc 1 465 37 view .LVU353
 1040 0010 4668     		ldr	r6, [r0, #4]
 1041              		.loc 1 465 8 view .LVU354
 1042 0012 B342     		cmp	r3, r6
 1043 0014 01D9     		bls	.L48
 466:ACE-ECF/Algorithm/src/fifo.c ****     {
 467:ACE-ECF/Algorithm/src/fifo.c ****         p_fifo->p_read_addr = p_fifo->p_start_addr;
 1044              		.loc 1 467 9 is_stmt 1 view .LVU355
 1045              		.loc 1 467 37 is_stmt 0 view .LVU356
 1046 0016 0368     		ldr	r3, [r0]
 1047              		.loc 1 467 29 view .LVU357
 1048 0018 0361     		str	r3, [r0, #16]
 1049              	.L48:
 468:ACE-ECF/Algorithm/src/fifo.c ****     }
 469:ACE-ECF/Algorithm/src/fifo.c **** 
 470:ACE-ECF/Algorithm/src/fifo.c ****     len = (len < p_fifo->used_num) ? len : p_fifo->used_num;
 1050              		.loc 1 470 5 is_stmt 1 view .LVU358
 1051              		.loc 1 470 9 is_stmt 0 view .LVU359
 1052 001a 9542     		cmp	r5, r2
 1053 001c A8BF     		it	ge
 1054 001e 1546     		movge	r5, r2
 1055              	.LVL82:
 471:ACE-ECF/Algorithm/src/fifo.c ****     len_to_end = p_fifo->p_end_addr - p_fifo->p_read_addr + 1;
 1056              		.loc 1 471 5 is_stmt 1 view .LVU360
 1057              		.loc 1 471 45 is_stmt 0 view .LVU361
 1058 0020 2169     		ldr	r1, [r4, #16]
 1059              	.LVL83:
 1060              		.loc 1 471 37 view .LVU362
 1061 0022 761A     		subs	r6, r6, r1
 1062              		.loc 1 471 16 view .LVU363
 1063 0024 0136     		adds	r6, r6, #1
 1064              	.LVL84:
 472:ACE-ECF/Algorithm/src/fifo.c **** 
 473:ACE-ECF/Algorithm/src/fifo.c ****     if (len_to_end >= len) //no rollback
 1065              		.loc 1 473 5 is_stmt 1 view .LVU364
 1066              		.loc 1 473 8 is_stmt 0 view .LVU365
 1067 0026 B542     		cmp	r5, r6
 1068 0028 0FDC     		bgt	.L49
 474:ACE-ECF/Algorithm/src/fifo.c ****     {
 475:ACE-ECF/Algorithm/src/fifo.c ****         len_to_end = len;
 1069              		.loc 1 475 9 is_stmt 1 view .LVU366
 1070              	.LVL85:
ARM GAS  C:\Users\28212\AppData\Local\Temp\ccAB46Z4.s 			page 32


 476:ACE-ECF/Algorithm/src/fifo.c ****         memcpy(p_dest, p_fifo->p_read_addr, len_to_end);
 1071              		.loc 1 476 9 view .LVU367
 1072 002a 2A46     		mov	r2, r5
 1073 002c 3846     		mov	r0, r7
 1074              	.LVL86:
 1075              		.loc 1 476 9 is_stmt 0 view .LVU368
 1076 002e FFF7FEFF 		bl	memcpy
 1077              	.LVL87:
 477:ACE-ECF/Algorithm/src/fifo.c ****         p_fifo->p_read_addr += len_to_end;
 1078              		.loc 1 477 9 is_stmt 1 view .LVU369
 1079              		.loc 1 477 29 is_stmt 0 view .LVU370
 1080 0032 2369     		ldr	r3, [r4, #16]
 1081 0034 2B44     		add	r3, r3, r5
 1082 0036 2361     		str	r3, [r4, #16]
 1083              	.LVL88:
 1084              	.L50:
 478:ACE-ECF/Algorithm/src/fifo.c ****     }
 479:ACE-ECF/Algorithm/src/fifo.c ****     else //rollback
 480:ACE-ECF/Algorithm/src/fifo.c ****     {
 481:ACE-ECF/Algorithm/src/fifo.c ****         len_from_start = len - len_to_end;
 482:ACE-ECF/Algorithm/src/fifo.c ****         memcpy(p_dest, p_fifo->p_read_addr, len_to_end);
 483:ACE-ECF/Algorithm/src/fifo.c ****         memcpy(p_dest + len_to_end, p_fifo->p_start_addr, len_from_start);
 484:ACE-ECF/Algorithm/src/fifo.c ****         p_fifo->p_read_addr = p_fifo->p_start_addr + len_from_start;
 485:ACE-ECF/Algorithm/src/fifo.c ****     }
 486:ACE-ECF/Algorithm/src/fifo.c **** 
 487:ACE-ECF/Algorithm/src/fifo.c ****     p_fifo->free_num += len;
 1085              		.loc 1 487 5 is_stmt 1 view .LVU371
 1086              		.loc 1 487 22 is_stmt 0 view .LVU372
 1087 0038 A368     		ldr	r3, [r4, #8]
 1088 003a 2B44     		add	r3, r3, r5
 1089 003c A360     		str	r3, [r4, #8]
 488:ACE-ECF/Algorithm/src/fifo.c ****     p_fifo->used_num -= len;
 1090              		.loc 1 488 5 is_stmt 1 view .LVU373
 1091              		.loc 1 488 22 is_stmt 0 view .LVU374
 1092 003e E368     		ldr	r3, [r4, #12]
 1093 0040 5B1B     		subs	r3, r3, r5
 1094 0042 E360     		str	r3, [r4, #12]
 489:ACE-ECF/Algorithm/src/fifo.c ****     retval = len;
 1095              		.loc 1 489 5 is_stmt 1 view .LVU375
 1096              	.LVL89:
 490:ACE-ECF/Algorithm/src/fifo.c **** 
 491:ACE-ECF/Algorithm/src/fifo.c ****     return retval;
 1097              		.loc 1 491 5 view .LVU376
 1098              	.L46:
 492:ACE-ECF/Algorithm/src/fifo.c **** }
 1099              		.loc 1 492 1 is_stmt 0 view .LVU377
 1100 0044 2846     		mov	r0, r5
 1101 0046 BDE8F081 		pop	{r4, r5, r6, r7, r8, pc}
 1102              	.LVL90:
 1103              	.L49:
 481:ACE-ECF/Algorithm/src/fifo.c ****         memcpy(p_dest, p_fifo->p_read_addr, len_to_end);
 1104              		.loc 1 481 9 is_stmt 1 view .LVU378
 481:ACE-ECF/Algorithm/src/fifo.c ****         memcpy(p_dest, p_fifo->p_read_addr, len_to_end);
 1105              		.loc 1 481 24 is_stmt 0 view .LVU379
 1106 004a A5EB0608 		sub	r8, r5, r6
 1107              	.LVL91:
 482:ACE-ECF/Algorithm/src/fifo.c ****         memcpy(p_dest + len_to_end, p_fifo->p_start_addr, len_from_start);
ARM GAS  C:\Users\28212\AppData\Local\Temp\ccAB46Z4.s 			page 33


 1108              		.loc 1 482 9 is_stmt 1 view .LVU380
 1109 004e 3246     		mov	r2, r6
 1110 0050 3846     		mov	r0, r7
 1111              	.LVL92:
 482:ACE-ECF/Algorithm/src/fifo.c ****         memcpy(p_dest + len_to_end, p_fifo->p_start_addr, len_from_start);
 1112              		.loc 1 482 9 is_stmt 0 view .LVU381
 1113 0052 FFF7FEFF 		bl	memcpy
 1114              	.LVL93:
 483:ACE-ECF/Algorithm/src/fifo.c ****         p_fifo->p_read_addr = p_fifo->p_start_addr + len_from_start;
 1115              		.loc 1 483 9 is_stmt 1 view .LVU382
 1116 0056 4246     		mov	r2, r8
 1117 0058 2168     		ldr	r1, [r4]
 1118 005a B819     		adds	r0, r7, r6
 1119 005c FFF7FEFF 		bl	memcpy
 1120              	.LVL94:
 484:ACE-ECF/Algorithm/src/fifo.c ****     }
 1121              		.loc 1 484 9 view .LVU383
 484:ACE-ECF/Algorithm/src/fifo.c ****     }
 1122              		.loc 1 484 37 is_stmt 0 view .LVU384
 1123 0060 2368     		ldr	r3, [r4]
 484:ACE-ECF/Algorithm/src/fifo.c ****     }
 1124              		.loc 1 484 52 view .LVU385
 1125 0062 4344     		add	r3, r3, r8
 484:ACE-ECF/Algorithm/src/fifo.c ****     }
 1126              		.loc 1 484 29 view .LVU386
 1127 0064 2361     		str	r3, [r4, #16]
 1128 0066 E7E7     		b	.L50
 1129              	.LVL95:
 1130              	.L51:
 457:ACE-ECF/Algorithm/src/fifo.c ****     }
 1131              		.loc 1 457 16 view .LVU387
 1132 0068 4FF0FF35 		mov	r5, #-1
 1133 006c EAE7     		b	.L46
 1134              		.cfi_endproc
 1135              	.LFE167:
 1137              		.section	.text.fifo_s_preread,"ax",%progbits
 1138              		.align	1
 1139              		.global	fifo_s_preread
 1140              		.syntax unified
 1141              		.thumb
 1142              		.thumb_func
 1144              	fifo_s_preread:
 1145              	.LVL96:
 1146              	.LFB168:
 493:ACE-ECF/Algorithm/src/fifo.c **** 
 494:ACE-ECF/Algorithm/src/fifo.c **** //******************************************************************************************
 495:ACE-ECF/Algorithm/src/fifo.c **** //
 496:ACE-ECF/Algorithm/src/fifo.c **** //! \brief  Pre-Read an element from FIFO(in single mode).
 497:ACE-ECF/Algorithm/src/fifo.c **** //!
 498:ACE-ECF/Algorithm/src/fifo.c **** //! \param  [in]  p_fifo is the pointer of valid FIFO.
 499:ACE-ECF/Algorithm/src/fifo.c **** //! \param  [in]  Offset is the offset from current pointer.
 500:ACE-ECF/Algorithm/src/fifo.c **** //!
 501:ACE-ECF/Algorithm/src/fifo.c **** //! \retval the data element of FIFO.
 502:ACE-ECF/Algorithm/src/fifo.c **** //
 503:ACE-ECF/Algorithm/src/fifo.c **** //******************************************************************************************
 504:ACE-ECF/Algorithm/src/fifo.c **** char fifo_s_preread(fifo_s_t *p_fifo, int offset)
 505:ACE-ECF/Algorithm/src/fifo.c **** {
ARM GAS  C:\Users\28212\AppData\Local\Temp\ccAB46Z4.s 			page 34


 1147              		.loc 1 505 1 is_stmt 1 view -0
 1148              		.cfi_startproc
 1149              		@ args = 0, pretend = 0, frame = 0
 1150              		@ frame_needed = 0, uses_anonymous_args = 0
 1151              		@ link register save eliminated.
 506:ACE-ECF/Algorithm/src/fifo.c ****     char *tmp_read_addr;
 1152              		.loc 1 506 5 view .LVU389
 507:ACE-ECF/Algorithm/src/fifo.c **** 
 508:ACE-ECF/Algorithm/src/fifo.c ****     //! Check input parameters.
 509:ACE-ECF/Algorithm/src/fifo.c ****     ASSERT(p_fifo);
 1153              		.loc 1 509 19 view .LVU390
 510:ACE-ECF/Algorithm/src/fifo.c **** 
 511:ACE-ECF/Algorithm/src/fifo.c ****     if (offset > p_fifo->used_num)
 1154              		.loc 1 511 5 view .LVU391
 1155              		.loc 1 511 24 is_stmt 0 view .LVU392
 1156 0000 C368     		ldr	r3, [r0, #12]
 1157              		.loc 1 511 8 view .LVU393
 1158 0002 8B42     		cmp	r3, r1
 1159 0004 0ADB     		blt	.L56
 512:ACE-ECF/Algorithm/src/fifo.c ****     {
 513:ACE-ECF/Algorithm/src/fifo.c ****         return 0;
 514:ACE-ECF/Algorithm/src/fifo.c ****     }
 515:ACE-ECF/Algorithm/src/fifo.c ****     else
 516:ACE-ECF/Algorithm/src/fifo.c ****     {
 517:ACE-ECF/Algorithm/src/fifo.c ****         // Move Read Pointer to right position
 518:ACE-ECF/Algorithm/src/fifo.c ****         tmp_read_addr = p_fifo->p_read_addr + offset;
 1160              		.loc 1 518 9 is_stmt 1 view .LVU394
 1161              		.loc 1 518 31 is_stmt 0 view .LVU395
 1162 0006 0369     		ldr	r3, [r0, #16]
 1163              		.loc 1 518 23 view .LVU396
 1164 0008 1944     		add	r1, r1, r3
 1165              	.LVL97:
 519:ACE-ECF/Algorithm/src/fifo.c ****         if (tmp_read_addr > p_fifo->p_end_addr)
 1166              		.loc 1 519 9 is_stmt 1 view .LVU397
 1167              		.loc 1 519 35 is_stmt 0 view .LVU398
 1168 000a 4368     		ldr	r3, [r0, #4]
 1169              		.loc 1 519 12 view .LVU399
 1170 000c 8B42     		cmp	r3, r1
 1171 000e 03D2     		bcs	.L55
 520:ACE-ECF/Algorithm/src/fifo.c ****         {
 521:ACE-ECF/Algorithm/src/fifo.c ****             tmp_read_addr = tmp_read_addr - p_fifo->p_end_addr + p_fifo->p_start_addr - 1;
 1172              		.loc 1 521 13 is_stmt 1 view .LVU400
 1173              		.loc 1 521 72 is_stmt 0 view .LVU401
 1174 0010 0268     		ldr	r2, [r0]
 1175              		.loc 1 521 43 view .LVU402
 1176 0012 C91A     		subs	r1, r1, r3
 1177              	.LVL98:
 1178              		.loc 1 521 87 view .LVU403
 1179 0014 0139     		subs	r1, r1, #1
 1180              		.loc 1 521 27 view .LVU404
 1181 0016 1144     		add	r1, r1, r2
 1182              	.LVL99:
 1183              	.L55:
 522:ACE-ECF/Algorithm/src/fifo.c ****         }
 523:ACE-ECF/Algorithm/src/fifo.c **** 
 524:ACE-ECF/Algorithm/src/fifo.c ****         return *tmp_read_addr;
 1184              		.loc 1 524 9 is_stmt 1 view .LVU405
ARM GAS  C:\Users\28212\AppData\Local\Temp\ccAB46Z4.s 			page 35


 1185              		.loc 1 524 16 is_stmt 0 view .LVU406
 1186 0018 0878     		ldrb	r0, [r1]	@ zero_extendqisi2
 1187              	.LVL100:
 1188              		.loc 1 524 16 view .LVU407
 1189 001a 7047     		bx	lr
 1190              	.LVL101:
 1191              	.L56:
 513:ACE-ECF/Algorithm/src/fifo.c ****     }
 1192              		.loc 1 513 16 view .LVU408
 1193 001c 0020     		movs	r0, #0
 1194              	.LVL102:
 525:ACE-ECF/Algorithm/src/fifo.c ****     }
 526:ACE-ECF/Algorithm/src/fifo.c **** }
 1195              		.loc 1 526 1 view .LVU409
 1196 001e 7047     		bx	lr
 1197              		.cfi_endproc
 1198              	.LFE168:
 1200              		.section	.text.fifo_s_prereads,"ax",%progbits
 1201              		.align	1
 1202              		.global	fifo_s_prereads
 1203              		.syntax unified
 1204              		.thumb
 1205              		.thumb_func
 1207              	fifo_s_prereads:
 1208              	.LVL103:
 1209              	.LFB169:
 527:ACE-ECF/Algorithm/src/fifo.c **** 
 528:ACE-ECF/Algorithm/src/fifo.c **** /*
 529:ACE-ECF/Algorithm/src/fifo.c ****  *
 530:ACE-ECF/Algorithm/src/fifo.c ****  *
 531:ACE-ECF/Algorithm/src/fifo.c ****  *
 532:ACE-ECF/Algorithm/src/fifo.c ****  *
 533:ACE-ECF/Algorithm/src/fifo.c ****  */
 534:ACE-ECF/Algorithm/src/fifo.c **** int fifo_s_prereads(fifo_s_t *p_fifo, char *p_dest, int offset, int len)
 535:ACE-ECF/Algorithm/src/fifo.c **** {
 1210              		.loc 1 535 1 is_stmt 1 view -0
 1211              		.cfi_startproc
 1212              		@ args = 0, pretend = 0, frame = 0
 1213              		@ frame_needed = 0, uses_anonymous_args = 0
 1214              		.loc 1 535 1 is_stmt 0 view .LVU411
 1215 0000 2DE9F041 		push	{r4, r5, r6, r7, r8, lr}
 1216              	.LCFI6:
 1217              		.cfi_def_cfa_offset 24
 1218              		.cfi_offset 4, -24
 1219              		.cfi_offset 5, -20
 1220              		.cfi_offset 6, -16
 1221              		.cfi_offset 7, -12
 1222              		.cfi_offset 8, -8
 1223              		.cfi_offset 14, -4
 536:ACE-ECF/Algorithm/src/fifo.c ****     int retval;
 1224              		.loc 1 536 5 is_stmt 1 view .LVU412
 537:ACE-ECF/Algorithm/src/fifo.c ****     char *tmp_read_addr;
 1225              		.loc 1 537 5 view .LVU413
 538:ACE-ECF/Algorithm/src/fifo.c ****     int len_to_end;
 1226              		.loc 1 538 5 view .LVU414
 539:ACE-ECF/Algorithm/src/fifo.c ****     int len_from_start;
 1227              		.loc 1 539 5 view .LVU415
ARM GAS  C:\Users\28212\AppData\Local\Temp\ccAB46Z4.s 			page 36


 540:ACE-ECF/Algorithm/src/fifo.c **** 
 541:ACE-ECF/Algorithm/src/fifo.c ****     ASSERT(p_fifo);
 1228              		.loc 1 541 19 view .LVU416
 542:ACE-ECF/Algorithm/src/fifo.c **** 
 543:ACE-ECF/Algorithm/src/fifo.c ****     if (NULL == p_dest)
 1229              		.loc 1 543 5 view .LVU417
 1230              		.loc 1 543 8 is_stmt 0 view .LVU418
 1231 0004 0029     		cmp	r1, #0
 1232 0006 37D0     		beq	.L64
 1233 0008 0746     		mov	r7, r0
 1234 000a 8846     		mov	r8, r1
 544:ACE-ECF/Algorithm/src/fifo.c ****     {
 545:ACE-ECF/Algorithm/src/fifo.c ****         return -1;
 546:ACE-ECF/Algorithm/src/fifo.c ****     }
 547:ACE-ECF/Algorithm/src/fifo.c **** 
 548:ACE-ECF/Algorithm/src/fifo.c ****     if (0 == p_fifo->used_num)
 1235              		.loc 1 548 5 is_stmt 1 view .LVU419
 1236              		.loc 1 548 20 is_stmt 0 view .LVU420
 1237 000c C168     		ldr	r1, [r0, #12]
 1238              	.LVL104:
 1239              		.loc 1 548 8 view .LVU421
 1240 000e B1B3     		cbz	r1, .L65
 549:ACE-ECF/Algorithm/src/fifo.c ****     {
 550:ACE-ECF/Algorithm/src/fifo.c ****         return -1;
 551:ACE-ECF/Algorithm/src/fifo.c ****     }
 552:ACE-ECF/Algorithm/src/fifo.c **** 
 553:ACE-ECF/Algorithm/src/fifo.c ****     if (offset >= p_fifo->used_num)
 1241              		.loc 1 553 5 is_stmt 1 view .LVU422
 1242              		.loc 1 553 8 is_stmt 0 view .LVU423
 1243 0010 9142     		cmp	r1, r2
 1244 0012 37DD     		ble	.L66
 554:ACE-ECF/Algorithm/src/fifo.c ****     {
 555:ACE-ECF/Algorithm/src/fifo.c ****         return -1;
 556:ACE-ECF/Algorithm/src/fifo.c ****     }
 557:ACE-ECF/Algorithm/src/fifo.c **** 
 558:ACE-ECF/Algorithm/src/fifo.c ****     MUTEX_LOCK(p_fifo->mutex);
 1245              		.loc 1 558 5 is_stmt 1 view .LVU424
 1246              		.loc 1 558 5 view .LVU425
 1247              	.LBB82:
 1248              	.LBI82:
 140:Drivers/CMSIS/Include/cmsis_gcc.h **** {
 1249              		.loc 2 140 27 view .LVU426
 1250              	.LBB83:
 1251              		.loc 2 142 3 view .LVU427
 1252              		.syntax unified
 1253              	@ 142 "Drivers/CMSIS/Include/cmsis_gcc.h" 1
 1254 0014 72B6     		cpsid i
 1255              	@ 0 "" 2
 1256              		.thumb
 1257              		.syntax unified
 1258              	.LBE83:
 1259              	.LBE82:
 1260              		.loc 1 558 5 view .LVU428
 559:ACE-ECF/Algorithm/src/fifo.c **** 
 560:ACE-ECF/Algorithm/src/fifo.c ****     if (0 == p_fifo->used_num)
 1261              		.loc 1 560 5 view .LVU429
 1262              		.loc 1 560 20 is_stmt 0 view .LVU430
ARM GAS  C:\Users\28212\AppData\Local\Temp\ccAB46Z4.s 			page 37


 1263 0016 C468     		ldr	r4, [r0, #12]
 1264              		.loc 1 560 8 view .LVU431
 1265 0018 D4B1     		cbz	r4, .L68
 561:ACE-ECF/Algorithm/src/fifo.c ****     {
 562:ACE-ECF/Algorithm/src/fifo.c ****         MUTEX_UNLOCK(p_fifo->mutex);
 563:ACE-ECF/Algorithm/src/fifo.c ****         return -1;
 564:ACE-ECF/Algorithm/src/fifo.c ****     }
 565:ACE-ECF/Algorithm/src/fifo.c **** 
 566:ACE-ECF/Algorithm/src/fifo.c ****     if (offset >= p_fifo->used_num)
 1266              		.loc 1 566 5 is_stmt 1 view .LVU432
 1267              		.loc 1 566 8 is_stmt 0 view .LVU433
 1268 001a 9442     		cmp	r4, r2
 1269 001c 1CDD     		ble	.L69
 567:ACE-ECF/Algorithm/src/fifo.c ****     {
 568:ACE-ECF/Algorithm/src/fifo.c ****         MUTEX_UNLOCK(p_fifo->mutex);
 569:ACE-ECF/Algorithm/src/fifo.c ****         return -1;
 570:ACE-ECF/Algorithm/src/fifo.c ****     }
 571:ACE-ECF/Algorithm/src/fifo.c **** 
 572:ACE-ECF/Algorithm/src/fifo.c ****     tmp_read_addr = p_fifo->p_read_addr + offset;
 1270              		.loc 1 572 5 is_stmt 1 view .LVU434
 1271              		.loc 1 572 27 is_stmt 0 view .LVU435
 1272 001e 0169     		ldr	r1, [r0, #16]
 1273              		.loc 1 572 19 view .LVU436
 1274 0020 1144     		add	r1, r1, r2
 1275              	.LVL105:
 573:ACE-ECF/Algorithm/src/fifo.c ****     if (tmp_read_addr > p_fifo->p_end_addr)
 1276              		.loc 1 573 5 is_stmt 1 view .LVU437
 1277              		.loc 1 573 31 is_stmt 0 view .LVU438
 1278 0022 4668     		ldr	r6, [r0, #4]
 1279              		.loc 1 573 8 view .LVU439
 1280 0024 8E42     		cmp	r6, r1
 1281 0026 03D2     		bcs	.L61
 574:ACE-ECF/Algorithm/src/fifo.c ****     {
 575:ACE-ECF/Algorithm/src/fifo.c ****         tmp_read_addr = tmp_read_addr - p_fifo->p_end_addr + p_fifo->p_start_addr - 1;
 1282              		.loc 1 575 9 is_stmt 1 view .LVU440
 1283              		.loc 1 575 68 is_stmt 0 view .LVU441
 1284 0028 0068     		ldr	r0, [r0]
 1285              	.LVL106:
 1286              		.loc 1 575 39 view .LVU442
 1287 002a 891B     		subs	r1, r1, r6
 1288              	.LVL107:
 1289              		.loc 1 575 83 view .LVU443
 1290 002c 0139     		subs	r1, r1, #1
 1291              		.loc 1 575 23 view .LVU444
 1292 002e 0144     		add	r1, r1, r0
 1293              	.LVL108:
 1294              	.L61:
 576:ACE-ECF/Algorithm/src/fifo.c ****     }
 577:ACE-ECF/Algorithm/src/fifo.c **** 
 578:ACE-ECF/Algorithm/src/fifo.c ****     len = (len < (p_fifo->used_num - offset)) ? len : (p_fifo->used_num - offset);
 1295              		.loc 1 578 5 is_stmt 1 view .LVU445
 1296              		.loc 1 578 36 is_stmt 0 view .LVU446
 1297 0030 A41A     		subs	r4, r4, r2
 1298              		.loc 1 578 9 view .LVU447
 1299 0032 9C42     		cmp	r4, r3
 1300 0034 A8BF     		it	ge
 1301 0036 1C46     		movge	r4, r3
ARM GAS  C:\Users\28212\AppData\Local\Temp\ccAB46Z4.s 			page 38


 1302              	.LVL109:
 579:ACE-ECF/Algorithm/src/fifo.c ****     len_to_end = p_fifo->p_end_addr - tmp_read_addr + 1;
 1303              		.loc 1 579 5 is_stmt 1 view .LVU448
 1304              		.loc 1 579 37 is_stmt 0 view .LVU449
 1305 0038 751A     		subs	r5, r6, r1
 1306              		.loc 1 579 16 view .LVU450
 1307 003a 0135     		adds	r5, r5, #1
 1308              	.LVL110:
 580:ACE-ECF/Algorithm/src/fifo.c **** 
 581:ACE-ECF/Algorithm/src/fifo.c ****     if (len_to_end >= len) //no rollback
 1309              		.loc 1 581 5 is_stmt 1 view .LVU451
 1310              		.loc 1 581 8 is_stmt 0 view .LVU452
 1311 003c AC42     		cmp	r4, r5
 1312 003e 0FDC     		bgt	.L62
 582:ACE-ECF/Algorithm/src/fifo.c ****     {
 583:ACE-ECF/Algorithm/src/fifo.c ****         len_to_end = len;
 1313              		.loc 1 583 9 is_stmt 1 view .LVU453
 1314              	.LVL111:
 584:ACE-ECF/Algorithm/src/fifo.c ****         memcpy(p_dest, tmp_read_addr, len_to_end);
 1315              		.loc 1 584 9 view .LVU454
 1316 0040 2246     		mov	r2, r4
 1317              	.LVL112:
 1318              		.loc 1 584 9 is_stmt 0 view .LVU455
 1319 0042 4046     		mov	r0, r8
 1320 0044 FFF7FEFF 		bl	memcpy
 1321              	.LVL113:
 1322              	.L63:
 585:ACE-ECF/Algorithm/src/fifo.c ****     }
 586:ACE-ECF/Algorithm/src/fifo.c ****     else //rollback
 587:ACE-ECF/Algorithm/src/fifo.c ****     {
 588:ACE-ECF/Algorithm/src/fifo.c ****         len_from_start = len - len_to_end;
 589:ACE-ECF/Algorithm/src/fifo.c ****         memcpy(p_dest, tmp_read_addr, len_to_end);
 590:ACE-ECF/Algorithm/src/fifo.c ****         memcpy(p_dest + len_to_end, p_fifo->p_start_addr, len_from_start);
 591:ACE-ECF/Algorithm/src/fifo.c ****     }
 592:ACE-ECF/Algorithm/src/fifo.c **** 
 593:ACE-ECF/Algorithm/src/fifo.c ****     retval = len;
 1323              		.loc 1 593 5 is_stmt 1 view .LVU456
 594:ACE-ECF/Algorithm/src/fifo.c ****     MUTEX_UNLOCK(p_fifo->mutex);
 1324              		.loc 1 594 5 view .LVU457
 1325              		.loc 1 594 5 view .LVU458
 1326              	.LBB84:
 1327              	.LBI84:
 129:Drivers/CMSIS/Include/cmsis_gcc.h **** {
 1328              		.loc 2 129 27 view .LVU459
 1329              	.LBB85:
 131:Drivers/CMSIS/Include/cmsis_gcc.h **** }
 1330              		.loc 2 131 3 view .LVU460
 1331              		.syntax unified
 1332              	@ 131 "Drivers/CMSIS/Include/cmsis_gcc.h" 1
 1333 0048 62B6     		cpsie i
 1334              	@ 0 "" 2
 1335              		.thumb
 1336              		.syntax unified
 1337              	.LBE85:
 1338              	.LBE84:
 1339              		.loc 1 594 5 view .LVU461
 595:ACE-ECF/Algorithm/src/fifo.c **** 
ARM GAS  C:\Users\28212\AppData\Local\Temp\ccAB46Z4.s 			page 39


 596:ACE-ECF/Algorithm/src/fifo.c ****     return retval;
 1340              		.loc 1 596 5 view .LVU462
 1341              	.LVL114:
 1342              	.L57:
 597:ACE-ECF/Algorithm/src/fifo.c **** }
 1343              		.loc 1 597 1 is_stmt 0 view .LVU463
 1344 004a 2046     		mov	r0, r4
 1345 004c BDE8F081 		pop	{r4, r5, r6, r7, r8, pc}
 1346              	.LVL115:
 1347              	.L68:
 562:ACE-ECF/Algorithm/src/fifo.c ****         return -1;
 1348              		.loc 1 562 9 is_stmt 1 view .LVU464
 562:ACE-ECF/Algorithm/src/fifo.c ****         return -1;
 1349              		.loc 1 562 9 view .LVU465
 1350              	.LBB86:
 1351              	.LBI86:
 129:Drivers/CMSIS/Include/cmsis_gcc.h **** {
 1352              		.loc 2 129 27 view .LVU466
 1353              	.LBB87:
 131:Drivers/CMSIS/Include/cmsis_gcc.h **** }
 1354              		.loc 2 131 3 view .LVU467
 1355              		.syntax unified
 1356              	@ 131 "Drivers/CMSIS/Include/cmsis_gcc.h" 1
 1357 0050 62B6     		cpsie i
 1358              	@ 0 "" 2
 1359              		.thumb
 1360              		.syntax unified
 1361              	.LBE87:
 1362              	.LBE86:
 562:ACE-ECF/Algorithm/src/fifo.c ****         return -1;
 1363              		.loc 1 562 9 view .LVU468
 563:ACE-ECF/Algorithm/src/fifo.c ****     }
 1364              		.loc 1 563 9 view .LVU469
 563:ACE-ECF/Algorithm/src/fifo.c ****     }
 1365              		.loc 1 563 16 is_stmt 0 view .LVU470
 1366 0052 4FF0FF34 		mov	r4, #-1
 1367 0056 F8E7     		b	.L57
 1368              	.L69:
 568:ACE-ECF/Algorithm/src/fifo.c ****         return -1;
 1369              		.loc 1 568 9 is_stmt 1 view .LVU471
 568:ACE-ECF/Algorithm/src/fifo.c ****         return -1;
 1370              		.loc 1 568 9 view .LVU472
 1371              	.LBB88:
 1372              	.LBI88:
 129:Drivers/CMSIS/Include/cmsis_gcc.h **** {
 1373              		.loc 2 129 27 view .LVU473
 1374              	.LBB89:
 131:Drivers/CMSIS/Include/cmsis_gcc.h **** }
 1375              		.loc 2 131 3 view .LVU474
 1376              		.syntax unified
 1377              	@ 131 "Drivers/CMSIS/Include/cmsis_gcc.h" 1
 1378 0058 62B6     		cpsie i
 1379              	@ 0 "" 2
 1380              		.thumb
 1381              		.syntax unified
 1382              	.LBE89:
 1383              	.LBE88:
ARM GAS  C:\Users\28212\AppData\Local\Temp\ccAB46Z4.s 			page 40


 568:ACE-ECF/Algorithm/src/fifo.c ****         return -1;
 1384              		.loc 1 568 9 view .LVU475
 569:ACE-ECF/Algorithm/src/fifo.c ****     }
 1385              		.loc 1 569 9 view .LVU476
 569:ACE-ECF/Algorithm/src/fifo.c ****     }
 1386              		.loc 1 569 16 is_stmt 0 view .LVU477
 1387 005a 4FF0FF34 		mov	r4, #-1
 1388 005e F4E7     		b	.L57
 1389              	.LVL116:
 1390              	.L62:
 588:ACE-ECF/Algorithm/src/fifo.c ****         memcpy(p_dest, tmp_read_addr, len_to_end);
 1391              		.loc 1 588 9 is_stmt 1 view .LVU478
 588:ACE-ECF/Algorithm/src/fifo.c ****         memcpy(p_dest, tmp_read_addr, len_to_end);
 1392              		.loc 1 588 24 is_stmt 0 view .LVU479
 1393 0060 661B     		subs	r6, r4, r5
 1394              	.LVL117:
 589:ACE-ECF/Algorithm/src/fifo.c ****         memcpy(p_dest + len_to_end, p_fifo->p_start_addr, len_from_start);
 1395              		.loc 1 589 9 is_stmt 1 view .LVU480
 1396 0062 2A46     		mov	r2, r5
 1397              	.LVL118:
 589:ACE-ECF/Algorithm/src/fifo.c ****         memcpy(p_dest + len_to_end, p_fifo->p_start_addr, len_from_start);
 1398              		.loc 1 589 9 is_stmt 0 view .LVU481
 1399 0064 4046     		mov	r0, r8
 1400 0066 FFF7FEFF 		bl	memcpy
 1401              	.LVL119:
 590:ACE-ECF/Algorithm/src/fifo.c ****     }
 1402              		.loc 1 590 9 is_stmt 1 view .LVU482
 1403 006a 3246     		mov	r2, r6
 1404 006c 3968     		ldr	r1, [r7]
 1405 006e 08EB0500 		add	r0, r8, r5
 1406 0072 FFF7FEFF 		bl	memcpy
 1407              	.LVL120:
 1408 0076 E7E7     		b	.L63
 1409              	.LVL121:
 1410              	.L64:
 545:ACE-ECF/Algorithm/src/fifo.c ****     }
 1411              		.loc 1 545 16 is_stmt 0 view .LVU483
 1412 0078 4FF0FF34 		mov	r4, #-1
 1413 007c E5E7     		b	.L57
 1414              	.LVL122:
 1415              	.L65:
 550:ACE-ECF/Algorithm/src/fifo.c ****     }
 1416              		.loc 1 550 16 view .LVU484
 1417 007e 4FF0FF34 		mov	r4, #-1
 1418 0082 E2E7     		b	.L57
 1419              	.L66:
 555:ACE-ECF/Algorithm/src/fifo.c ****     }
 1420              		.loc 1 555 16 view .LVU485
 1421 0084 4FF0FF34 		mov	r4, #-1
 1422 0088 DFE7     		b	.L57
 1423              		.cfi_endproc
 1424              	.LFE169:
 1426              		.section	.text.fifo_s_isempty,"ax",%progbits
 1427              		.align	1
 1428              		.global	fifo_s_isempty
 1429              		.syntax unified
 1430              		.thumb
ARM GAS  C:\Users\28212\AppData\Local\Temp\ccAB46Z4.s 			page 41


 1431              		.thumb_func
 1433              	fifo_s_isempty:
 1434              	.LVL123:
 1435              	.LFB170:
 598:ACE-ECF/Algorithm/src/fifo.c **** 
 599:ACE-ECF/Algorithm/src/fifo.c **** //******************************************************************************************
 600:ACE-ECF/Algorithm/src/fifo.c **** //
 601:ACE-ECF/Algorithm/src/fifo.c **** //! \brief  FIFO is empty (in single mode)?
 602:ACE-ECF/Algorithm/src/fifo.c **** //!
 603:ACE-ECF/Algorithm/src/fifo.c **** //! \param  [in] p_fifo is the pointer of valid FIFO.
 604:ACE-ECF/Algorithm/src/fifo.c **** //!
 605:ACE-ECF/Algorithm/src/fifo.c **** //! \retval - None-zero(true) if empty.
 606:ACE-ECF/Algorithm/src/fifo.c **** //!         - Zero(false) if not empty.
 607:ACE-ECF/Algorithm/src/fifo.c **** //
 608:ACE-ECF/Algorithm/src/fifo.c **** //******************************************************************************************
 609:ACE-ECF/Algorithm/src/fifo.c **** char fifo_s_isempty(fifo_s_t *p_fifo)
 610:ACE-ECF/Algorithm/src/fifo.c **** {
 1436              		.loc 1 610 1 is_stmt 1 view -0
 1437              		.cfi_startproc
 1438              		@ args = 0, pretend = 0, frame = 0
 1439              		@ frame_needed = 0, uses_anonymous_args = 0
 1440              		@ link register save eliminated.
 611:ACE-ECF/Algorithm/src/fifo.c ****     //! Check input parameter.
 612:ACE-ECF/Algorithm/src/fifo.c ****     ASSERT(p_fifo);
 1441              		.loc 1 612 19 view .LVU487
 613:ACE-ECF/Algorithm/src/fifo.c ****     return (p_fifo->used_num ? 0 : 1);
 1442              		.loc 1 613 5 view .LVU488
 1443              		.loc 1 613 19 is_stmt 0 view .LVU489
 1444 0000 C068     		ldr	r0, [r0, #12]
 1445              	.LVL124:
 614:ACE-ECF/Algorithm/src/fifo.c **** }
 1446              		.loc 1 614 1 view .LVU490
 1447 0002 B0FA80F0 		clz	r0, r0
 1448 0006 4009     		lsrs	r0, r0, #5
 1449 0008 7047     		bx	lr
 1450              		.cfi_endproc
 1451              	.LFE170:
 1453              		.section	.text.fifo_s_isfull,"ax",%progbits
 1454              		.align	1
 1455              		.global	fifo_s_isfull
 1456              		.syntax unified
 1457              		.thumb
 1458              		.thumb_func
 1460              	fifo_s_isfull:
 1461              	.LVL125:
 1462              	.LFB171:
 615:ACE-ECF/Algorithm/src/fifo.c **** 
 616:ACE-ECF/Algorithm/src/fifo.c **** //******************************************************************************************
 617:ACE-ECF/Algorithm/src/fifo.c **** //
 618:ACE-ECF/Algorithm/src/fifo.c **** //! \brief  FIFO is full (in single mode)?
 619:ACE-ECF/Algorithm/src/fifo.c **** //!
 620:ACE-ECF/Algorithm/src/fifo.c **** //! \param  [in] p_fifo is the pointer of valid FIFO.
 621:ACE-ECF/Algorithm/src/fifo.c **** //!
 622:ACE-ECF/Algorithm/src/fifo.c **** //! \retval - None-zero(true) if full.
 623:ACE-ECF/Algorithm/src/fifo.c **** //!         - Zero(false) if not full.
 624:ACE-ECF/Algorithm/src/fifo.c **** //
 625:ACE-ECF/Algorithm/src/fifo.c **** //******************************************************************************************
ARM GAS  C:\Users\28212\AppData\Local\Temp\ccAB46Z4.s 			page 42


 626:ACE-ECF/Algorithm/src/fifo.c **** char fifo_s_isfull(fifo_s_t *p_fifo)
 627:ACE-ECF/Algorithm/src/fifo.c **** {
 1463              		.loc 1 627 1 is_stmt 1 view -0
 1464              		.cfi_startproc
 1465              		@ args = 0, pretend = 0, frame = 0
 1466              		@ frame_needed = 0, uses_anonymous_args = 0
 1467              		@ link register save eliminated.
 628:ACE-ECF/Algorithm/src/fifo.c ****     //! Check input parameter.
 629:ACE-ECF/Algorithm/src/fifo.c ****     ASSERT(p_fifo);
 1468              		.loc 1 629 19 view .LVU492
 630:ACE-ECF/Algorithm/src/fifo.c ****     return (p_fifo->free_num ? 0 : 1);
 1469              		.loc 1 630 5 view .LVU493
 1470              		.loc 1 630 19 is_stmt 0 view .LVU494
 1471 0000 8068     		ldr	r0, [r0, #8]
 1472              	.LVL126:
 631:ACE-ECF/Algorithm/src/fifo.c **** }
 1473              		.loc 1 631 1 view .LVU495
 1474 0002 B0FA80F0 		clz	r0, r0
 1475 0006 4009     		lsrs	r0, r0, #5
 1476 0008 7047     		bx	lr
 1477              		.cfi_endproc
 1478              	.LFE171:
 1480              		.section	.text.fifo_s_used,"ax",%progbits
 1481              		.align	1
 1482              		.global	fifo_s_used
 1483              		.syntax unified
 1484              		.thumb
 1485              		.thumb_func
 1487              	fifo_s_used:
 1488              	.LVL127:
 1489              	.LFB172:
 632:ACE-ECF/Algorithm/src/fifo.c **** 
 633:ACE-ECF/Algorithm/src/fifo.c **** //******************************************************************************************
 634:ACE-ECF/Algorithm/src/fifo.c **** //
 635:ACE-ECF/Algorithm/src/fifo.c **** //! \brief  Get FIFO the number of elements(in single mode)?
 636:ACE-ECF/Algorithm/src/fifo.c **** //!
 637:ACE-ECF/Algorithm/src/fifo.c **** //! \param  [in] p_fifo is the pointer of valid FIFO.
 638:ACE-ECF/Algorithm/src/fifo.c **** //!
 639:ACE-ECF/Algorithm/src/fifo.c **** //! \retval The number of elements in FIFO.
 640:ACE-ECF/Algorithm/src/fifo.c **** //
 641:ACE-ECF/Algorithm/src/fifo.c **** //******************************************************************************************
 642:ACE-ECF/Algorithm/src/fifo.c **** int fifo_s_used(fifo_s_t *p_fifo)
 643:ACE-ECF/Algorithm/src/fifo.c **** {
 1490              		.loc 1 643 1 is_stmt 1 view -0
 1491              		.cfi_startproc
 1492              		@ args = 0, pretend = 0, frame = 0
 1493              		@ frame_needed = 0, uses_anonymous_args = 0
 1494              		@ link register save eliminated.
 644:ACE-ECF/Algorithm/src/fifo.c ****     //! Check input parameter.
 645:ACE-ECF/Algorithm/src/fifo.c ****     ASSERT(p_fifo);
 1495              		.loc 1 645 19 view .LVU497
 646:ACE-ECF/Algorithm/src/fifo.c ****     return p_fifo->used_num;
 1496              		.loc 1 646 5 view .LVU498
 647:ACE-ECF/Algorithm/src/fifo.c **** }
 1497              		.loc 1 647 1 is_stmt 0 view .LVU499
 1498 0000 C068     		ldr	r0, [r0, #12]
 1499              	.LVL128:
ARM GAS  C:\Users\28212\AppData\Local\Temp\ccAB46Z4.s 			page 43


 1500              		.loc 1 647 1 view .LVU500
 1501 0002 7047     		bx	lr
 1502              		.cfi_endproc
 1503              	.LFE172:
 1505              		.section	.text.fifo_s_free,"ax",%progbits
 1506              		.align	1
 1507              		.global	fifo_s_free
 1508              		.syntax unified
 1509              		.thumb
 1510              		.thumb_func
 1512              	fifo_s_free:
 1513              	.LVL129:
 1514              	.LFB173:
 648:ACE-ECF/Algorithm/src/fifo.c **** 
 649:ACE-ECF/Algorithm/src/fifo.c **** //******************************************************************************************
 650:ACE-ECF/Algorithm/src/fifo.c **** //
 651:ACE-ECF/Algorithm/src/fifo.c **** //! \brief  Get FIFO the number of elements(in single mode)?
 652:ACE-ECF/Algorithm/src/fifo.c **** //!
 653:ACE-ECF/Algorithm/src/fifo.c **** //! \param  [in] p_fifo is the pointer of valid FIFO.
 654:ACE-ECF/Algorithm/src/fifo.c **** //!
 655:ACE-ECF/Algorithm/src/fifo.c **** //! \retval The number of elements in FIFO.
 656:ACE-ECF/Algorithm/src/fifo.c **** //
 657:ACE-ECF/Algorithm/src/fifo.c **** //******************************************************************************************
 658:ACE-ECF/Algorithm/src/fifo.c **** int fifo_s_free(fifo_s_t *p_fifo)
 659:ACE-ECF/Algorithm/src/fifo.c **** {
 1515              		.loc 1 659 1 is_stmt 1 view -0
 1516              		.cfi_startproc
 1517              		@ args = 0, pretend = 0, frame = 0
 1518              		@ frame_needed = 0, uses_anonymous_args = 0
 1519              		@ link register save eliminated.
 660:ACE-ECF/Algorithm/src/fifo.c ****     //! Check input parameter.
 661:ACE-ECF/Algorithm/src/fifo.c ****     ASSERT(p_fifo);
 1520              		.loc 1 661 19 view .LVU502
 662:ACE-ECF/Algorithm/src/fifo.c ****     return p_fifo->free_num;
 1521              		.loc 1 662 5 view .LVU503
 663:ACE-ECF/Algorithm/src/fifo.c **** }
 1522              		.loc 1 663 1 is_stmt 0 view .LVU504
 1523 0000 8068     		ldr	r0, [r0, #8]
 1524              	.LVL130:
 1525              		.loc 1 663 1 view .LVU505
 1526 0002 7047     		bx	lr
 1527              		.cfi_endproc
 1528              	.LFE173:
 1530              		.section	.text.fifo_s_flush,"ax",%progbits
 1531              		.align	1
 1532              		.global	fifo_s_flush
 1533              		.syntax unified
 1534              		.thumb
 1535              		.thumb_func
 1537              	fifo_s_flush:
 1538              	.LVL131:
 1539              	.LFB174:
 664:ACE-ECF/Algorithm/src/fifo.c **** 
 665:ACE-ECF/Algorithm/src/fifo.c **** //******************************************************************************************
 666:ACE-ECF/Algorithm/src/fifo.c **** //
 667:ACE-ECF/Algorithm/src/fifo.c **** //! \brief  Flush the content of FIFO.
 668:ACE-ECF/Algorithm/src/fifo.c **** //!
ARM GAS  C:\Users\28212\AppData\Local\Temp\ccAB46Z4.s 			page 44


 669:ACE-ECF/Algorithm/src/fifo.c **** //! \param  [in] p_fifo is the pointer of valid FIFO.
 670:ACE-ECF/Algorithm/src/fifo.c **** //!
 671:ACE-ECF/Algorithm/src/fifo.c **** //! \retval 0 if success, -1 if failure.
 672:ACE-ECF/Algorithm/src/fifo.c **** //
 673:ACE-ECF/Algorithm/src/fifo.c **** //******************************************************************************************
 674:ACE-ECF/Algorithm/src/fifo.c **** void fifo_s_flush(fifo_s_t *p_fifo)
 675:ACE-ECF/Algorithm/src/fifo.c **** {
 1540              		.loc 1 675 1 is_stmt 1 view -0
 1541              		.cfi_startproc
 1542              		@ args = 0, pretend = 0, frame = 0
 1543              		@ frame_needed = 0, uses_anonymous_args = 0
 1544              		@ link register save eliminated.
 676:ACE-ECF/Algorithm/src/fifo.c ****     //! Check input parameters.
 677:ACE-ECF/Algorithm/src/fifo.c ****     ASSERT(p_fifo);
 1545              		.loc 1 677 19 view .LVU507
 678:ACE-ECF/Algorithm/src/fifo.c ****     //! Initialize FIFO Control Block.
 679:ACE-ECF/Algorithm/src/fifo.c ****     MUTEX_LOCK(p_fifo->mutex);
 1546              		.loc 1 679 5 view .LVU508
 1547              		.loc 1 679 5 view .LVU509
 1548              	.LBB90:
 1549              	.LBI90:
 140:Drivers/CMSIS/Include/cmsis_gcc.h **** {
 1550              		.loc 2 140 27 view .LVU510
 1551              	.LBB91:
 1552              		.loc 2 142 3 view .LVU511
 1553              		.syntax unified
 1554              	@ 142 "Drivers/CMSIS/Include/cmsis_gcc.h" 1
 1555 0000 72B6     		cpsid i
 1556              	@ 0 "" 2
 1557              		.thumb
 1558              		.syntax unified
 1559              	.LBE91:
 1560              	.LBE90:
 1561              		.loc 1 679 5 view .LVU512
 680:ACE-ECF/Algorithm/src/fifo.c ****     p_fifo->free_num = p_fifo->p_end_addr - p_fifo->p_start_addr + 1;
 1562              		.loc 1 680 5 view .LVU513
 1563              		.loc 1 680 30 is_stmt 0 view .LVU514
 1564 0002 4368     		ldr	r3, [r0, #4]
 1565              		.loc 1 680 51 view .LVU515
 1566 0004 0268     		ldr	r2, [r0]
 1567              		.loc 1 680 43 view .LVU516
 1568 0006 9B1A     		subs	r3, r3, r2
 1569              		.loc 1 680 66 view .LVU517
 1570 0008 0133     		adds	r3, r3, #1
 1571              		.loc 1 680 22 view .LVU518
 1572 000a 8360     		str	r3, [r0, #8]
 681:ACE-ECF/Algorithm/src/fifo.c ****     p_fifo->used_num = 0;
 1573              		.loc 1 681 5 is_stmt 1 view .LVU519
 1574              		.loc 1 681 22 is_stmt 0 view .LVU520
 1575 000c 0023     		movs	r3, #0
 1576 000e C360     		str	r3, [r0, #12]
 682:ACE-ECF/Algorithm/src/fifo.c ****     p_fifo->p_read_addr = p_fifo->p_start_addr;
 1577              		.loc 1 682 5 is_stmt 1 view .LVU521
 1578              		.loc 1 682 25 is_stmt 0 view .LVU522
 1579 0010 0261     		str	r2, [r0, #16]
 683:ACE-ECF/Algorithm/src/fifo.c ****     p_fifo->p_write_addr = p_fifo->p_start_addr;
 1580              		.loc 1 683 5 is_stmt 1 view .LVU523
ARM GAS  C:\Users\28212\AppData\Local\Temp\ccAB46Z4.s 			page 45


 1581              		.loc 1 683 26 is_stmt 0 view .LVU524
 1582 0012 4261     		str	r2, [r0, #20]
 684:ACE-ECF/Algorithm/src/fifo.c ****     MUTEX_UNLOCK(p_fifo->mutex);
 1583              		.loc 1 684 5 is_stmt 1 view .LVU525
 1584              		.loc 1 684 5 view .LVU526
 1585              	.LBB92:
 1586              	.LBI92:
 129:Drivers/CMSIS/Include/cmsis_gcc.h **** {
 1587              		.loc 2 129 27 view .LVU527
 1588              	.LBB93:
 131:Drivers/CMSIS/Include/cmsis_gcc.h **** }
 1589              		.loc 2 131 3 view .LVU528
 1590              		.syntax unified
 1591              	@ 131 "Drivers/CMSIS/Include/cmsis_gcc.h" 1
 1592 0014 62B6     		cpsie i
 1593              	@ 0 "" 2
 1594              		.thumb
 1595              		.syntax unified
 1596              	.LBE93:
 1597              	.LBE92:
 1598              		.loc 1 684 5 view .LVU529
 685:ACE-ECF/Algorithm/src/fifo.c **** }
 1599              		.loc 1 685 1 is_stmt 0 view .LVU530
 1600 0016 7047     		bx	lr
 1601              		.cfi_endproc
 1602              	.LFE174:
 1604              		.section	.text.fifo_s_discard,"ax",%progbits
 1605              		.align	1
 1606              		.global	fifo_s_discard
 1607              		.syntax unified
 1608              		.thumb
 1609              		.thumb_func
 1611              	fifo_s_discard:
 1612              	.LVL132:
 1613              	.LFB175:
 686:ACE-ECF/Algorithm/src/fifo.c **** 
 687:ACE-ECF/Algorithm/src/fifo.c **** int fifo_s_discard(fifo_s_t *p_fifo, int len)
 688:ACE-ECF/Algorithm/src/fifo.c **** {
 1614              		.loc 1 688 1 is_stmt 1 view -0
 1615              		.cfi_startproc
 1616              		@ args = 0, pretend = 0, frame = 0
 1617              		@ frame_needed = 0, uses_anonymous_args = 0
 1618              		@ link register save eliminated.
 1619              		.loc 1 688 1 is_stmt 0 view .LVU532
 1620 0000 10B4     		push	{r4}
 1621              	.LCFI7:
 1622              		.cfi_def_cfa_offset 4
 1623              		.cfi_offset 4, -4
 1624 0002 0346     		mov	r3, r0
 1625 0004 0846     		mov	r0, r1
 1626              	.LVL133:
 689:ACE-ECF/Algorithm/src/fifo.c ****     //! Check input parameters.
 690:ACE-ECF/Algorithm/src/fifo.c ****     char *tmp_index;
 1627              		.loc 1 690 5 is_stmt 1 view .LVU533
 691:ACE-ECF/Algorithm/src/fifo.c ****     ASSERT(p_fifo);
 1628              		.loc 1 691 19 view .LVU534
 692:ACE-ECF/Algorithm/src/fifo.c **** 
ARM GAS  C:\Users\28212\AppData\Local\Temp\ccAB46Z4.s 			page 46


 693:ACE-ECF/Algorithm/src/fifo.c ****     MUTEX_LOCK(p_fifo->mutex);
 1629              		.loc 1 693 5 view .LVU535
 1630              		.loc 1 693 5 view .LVU536
 1631              	.LBB94:
 1632              	.LBI94:
 140:Drivers/CMSIS/Include/cmsis_gcc.h **** {
 1633              		.loc 2 140 27 view .LVU537
 1634              	.LBB95:
 1635              		.loc 2 142 3 view .LVU538
 1636              		.syntax unified
 1637              	@ 142 "Drivers/CMSIS/Include/cmsis_gcc.h" 1
 1638 0006 72B6     		cpsid i
 1639              	@ 0 "" 2
 1640              		.thumb
 1641              		.syntax unified
 1642              	.LBE95:
 1643              	.LBE94:
 1644              		.loc 1 693 5 view .LVU539
 694:ACE-ECF/Algorithm/src/fifo.c ****     if (len > p_fifo->used_num)
 1645              		.loc 1 694 5 view .LVU540
 1646              		.loc 1 694 21 is_stmt 0 view .LVU541
 1647 0008 D968     		ldr	r1, [r3, #12]
 1648              	.LVL134:
 1649              		.loc 1 694 8 view .LVU542
 1650 000a 8142     		cmp	r1, r0
 1651 000c 00DA     		bge	.L76
 695:ACE-ECF/Algorithm/src/fifo.c ****     {
 696:ACE-ECF/Algorithm/src/fifo.c ****         len = p_fifo->used_num;
 1652              		.loc 1 696 13 view .LVU543
 1653 000e 0846     		mov	r0, r1
 1654              	.LVL135:
 1655              	.L76:
 697:ACE-ECF/Algorithm/src/fifo.c ****     }
 698:ACE-ECF/Algorithm/src/fifo.c **** 
 699:ACE-ECF/Algorithm/src/fifo.c ****     tmp_index = len + p_fifo->p_read_addr;
 1656              		.loc 1 699 5 is_stmt 1 view .LVU544
 1657              		.loc 1 699 29 is_stmt 0 view .LVU545
 1658 0010 1A69     		ldr	r2, [r3, #16]
 1659              		.loc 1 699 15 view .LVU546
 1660 0012 0244     		add	r2, r2, r0
 1661              	.LVL136:
 700:ACE-ECF/Algorithm/src/fifo.c ****     if (tmp_index > p_fifo->p_end_addr)
 1662              		.loc 1 700 5 is_stmt 1 view .LVU547
 1663              		.loc 1 700 27 is_stmt 0 view .LVU548
 1664 0014 5C68     		ldr	r4, [r3, #4]
 1665              		.loc 1 700 8 view .LVU549
 1666 0016 9442     		cmp	r4, r2
 1667 0018 03D2     		bcs	.L77
 701:ACE-ECF/Algorithm/src/fifo.c ****     {
 702:ACE-ECF/Algorithm/src/fifo.c ****         tmp_index = tmp_index - p_fifo->p_end_addr + p_fifo->p_start_addr - 1;
 1668              		.loc 1 702 9 is_stmt 1 view .LVU550
 1669              		.loc 1 702 31 is_stmt 0 view .LVU551
 1670 001a 121B     		subs	r2, r2, r4
 1671              	.LVL137:
 1672              		.loc 1 702 75 view .LVU552
 1673 001c 013A     		subs	r2, r2, #1
 1674              		.loc 1 702 19 view .LVU553
ARM GAS  C:\Users\28212\AppData\Local\Temp\ccAB46Z4.s 			page 47


 1675 001e 1C68     		ldr	r4, [r3]
 1676 0020 2244     		add	r2, r2, r4
 1677              	.LVL138:
 1678              	.L77:
 703:ACE-ECF/Algorithm/src/fifo.c ****     }
 704:ACE-ECF/Algorithm/src/fifo.c ****     p_fifo->p_read_addr = tmp_index;
 1679              		.loc 1 704 5 is_stmt 1 view .LVU554
 1680              		.loc 1 704 25 is_stmt 0 view .LVU555
 1681 0022 1A61     		str	r2, [r3, #16]
 705:ACE-ECF/Algorithm/src/fifo.c ****     p_fifo->free_num += len;
 1682              		.loc 1 705 5 is_stmt 1 view .LVU556
 1683              		.loc 1 705 22 is_stmt 0 view .LVU557
 1684 0024 9A68     		ldr	r2, [r3, #8]
 1685              	.LVL139:
 1686              		.loc 1 705 22 view .LVU558
 1687 0026 0244     		add	r2, r2, r0
 1688 0028 9A60     		str	r2, [r3, #8]
 706:ACE-ECF/Algorithm/src/fifo.c ****     p_fifo->used_num -= len;
 1689              		.loc 1 706 5 is_stmt 1 view .LVU559
 1690              		.loc 1 706 22 is_stmt 0 view .LVU560
 1691 002a 091A     		subs	r1, r1, r0
 1692 002c D960     		str	r1, [r3, #12]
 707:ACE-ECF/Algorithm/src/fifo.c ****     MUTEX_UNLOCK(p_fifo->mutex);
 1693              		.loc 1 707 5 is_stmt 1 view .LVU561
 1694              		.loc 1 707 5 view .LVU562
 1695              	.LBB96:
 1696              	.LBI96:
 129:Drivers/CMSIS/Include/cmsis_gcc.h **** {
 1697              		.loc 2 129 27 view .LVU563
 1698              	.LBB97:
 131:Drivers/CMSIS/Include/cmsis_gcc.h **** }
 1699              		.loc 2 131 3 view .LVU564
 1700              		.syntax unified
 1701              	@ 131 "Drivers/CMSIS/Include/cmsis_gcc.h" 1
 1702 002e 62B6     		cpsie i
 1703              	@ 0 "" 2
 1704              		.thumb
 1705              		.syntax unified
 1706              	.LBE97:
 1707              	.LBE96:
 1708              		.loc 1 707 5 view .LVU565
 708:ACE-ECF/Algorithm/src/fifo.c ****     return len;
 1709              		.loc 1 708 5 view .LVU566
 709:ACE-ECF/Algorithm/src/fifo.c **** }
 1710              		.loc 1 709 1 is_stmt 0 view .LVU567
 1711 0030 5DF8044B 		ldr	r4, [sp], #4
 1712              	.LCFI8:
 1713              		.cfi_restore 4
 1714              		.cfi_def_cfa_offset 0
 1715 0034 7047     		bx	lr
 1716              		.cfi_endproc
 1717              	.LFE175:
 1719              		.section	.text.fifo_destory,"ax",%progbits
 1720              		.align	1
 1721              		.global	fifo_destory
 1722              		.syntax unified
 1723              		.thumb
ARM GAS  C:\Users\28212\AppData\Local\Temp\ccAB46Z4.s 			page 48


 1724              		.thumb_func
 1726              	fifo_destory:
 1727              	.LVL140:
 1728              	.LFB177:
 710:ACE-ECF/Algorithm/src/fifo.c **** 
 711:ACE-ECF/Algorithm/src/fifo.c **** #ifdef USE_DYNAMIC_MEMORY
 712:ACE-ECF/Algorithm/src/fifo.c **** //******************************************************************************************
 713:ACE-ECF/Algorithm/src/fifo.c **** //
 714:ACE-ECF/Algorithm/src/fifo.c **** //! \brief  Create An New FIFO Instance.
 715:ACE-ECF/Algorithm/src/fifo.c **** //! This function allocate enought room for N blocks fifo elements, then return the pointer
 716:ACE-ECF/Algorithm/src/fifo.c **** //! of FIFO.
 717:ACE-ECF/Algorithm/src/fifo.c **** //!
 718:ACE-ECF/Algorithm/src/fifo.c **** //! \param  [in] UnitSize is fifo element size.
 719:ACE-ECF/Algorithm/src/fifo.c **** //! \param  [in] UnitCnt is count of fifo elements.
 720:ACE-ECF/Algorithm/src/fifo.c **** //! \retval The Pointer of FIFO instance, return NULL is failure to allocate memory.
 721:ACE-ECF/Algorithm/src/fifo.c **** //!
 722:ACE-ECF/Algorithm/src/fifo.c **** //! \note   -# You must enable USE_MEMORY_ALLOC macro and ensure your system have <stdlib.h>
 723:ACE-ECF/Algorithm/src/fifo.c **** //!            Header file before use this function.
 724:ACE-ECF/Algorithm/src/fifo.c **** //! \note   -# Functions FIFO_Create and FIFO_Destory must be used in pairs.
 725:ACE-ECF/Algorithm/src/fifo.c **** //!
 726:ACE-ECF/Algorithm/src/fifo.c **** //******************************************************************************************
 727:ACE-ECF/Algorithm/src/fifo.c **** fifo_t *fifo_create(char unit_size, int unit_cnt)
 728:ACE-ECF/Algorithm/src/fifo.c **** {
 729:ACE-ECF/Algorithm/src/fifo.c ****     fifo_t *p_fifo = NULL;    //!< FIFO Pointer
 730:ACE-ECF/Algorithm/src/fifo.c ****     char *p_base_addr = NULL; //!< Memory Base Address
 731:ACE-ECF/Algorithm/src/fifo.c **** 
 732:ACE-ECF/Algorithm/src/fifo.c ****     //! Check input parameters.
 733:ACE-ECF/Algorithm/src/fifo.c ****     ASSERT(unit_size);
 734:ACE-ECF/Algorithm/src/fifo.c ****     ASSERT(unit_cnt);
 735:ACE-ECF/Algorithm/src/fifo.c **** 
 736:ACE-ECF/Algorithm/src/fifo.c ****     //! Allocate Memory for pointer of new FIFO Control Block.
 737:ACE-ECF/Algorithm/src/fifo.c ****     p_fifo = (fifo_t *)malloc(sizeof(fifo_t));
 738:ACE-ECF/Algorithm/src/fifo.c ****     if (NULL == p_fifo)
 739:ACE-ECF/Algorithm/src/fifo.c ****     {
 740:ACE-ECF/Algorithm/src/fifo.c ****         //! Allocate Failure, exit now.
 741:ACE-ECF/Algorithm/src/fifo.c ****         return (NULL);
 742:ACE-ECF/Algorithm/src/fifo.c ****     }
 743:ACE-ECF/Algorithm/src/fifo.c **** 
 744:ACE-ECF/Algorithm/src/fifo.c ****     //! Allocate memory for FIFO.
 745:ACE-ECF/Algorithm/src/fifo.c ****     p_base_addr = malloc(unit_size * unit_cnt);
 746:ACE-ECF/Algorithm/src/fifo.c ****     if (NULL == p_base_addr)
 747:ACE-ECF/Algorithm/src/fifo.c ****     {
 748:ACE-ECF/Algorithm/src/fifo.c ****         //! Allocate Failure, exit now.
 749:ACE-ECF/Algorithm/src/fifo.c ****         free(p_fifo);
 750:ACE-ECF/Algorithm/src/fifo.c ****         return (NULL);
 751:ACE-ECF/Algorithm/src/fifo.c ****     }
 752:ACE-ECF/Algorithm/src/fifo.c **** 
 753:ACE-ECF/Algorithm/src/fifo.c ****     //! Initialize General FIFO Module.
 754:ACE-ECF/Algorithm/src/fifo.c ****     fifo_init(p_fifo, p_base_addr, unit_size, unit_cnt);
 755:ACE-ECF/Algorithm/src/fifo.c **** 
 756:ACE-ECF/Algorithm/src/fifo.c ****     return (p_fifo);
 757:ACE-ECF/Algorithm/src/fifo.c **** }
 758:ACE-ECF/Algorithm/src/fifo.c **** 
 759:ACE-ECF/Algorithm/src/fifo.c **** //******************************************************************************************
 760:ACE-ECF/Algorithm/src/fifo.c **** //
 761:ACE-ECF/Algorithm/src/fifo.c **** //! \brief  Destory FIFO Instance.
 762:ACE-ECF/Algorithm/src/fifo.c **** //!  This function release memory, then reinit the FIFO struct.
ARM GAS  C:\Users\28212\AppData\Local\Temp\ccAB46Z4.s 			page 49


 763:ACE-ECF/Algorithm/src/fifo.c **** //!
 764:ACE-ECF/Algorithm/src/fifo.c **** //! \param  [in] pFIFO is the pointer of FIFO instance
 765:ACE-ECF/Algorithm/src/fifo.c **** //! \retval None.
 766:ACE-ECF/Algorithm/src/fifo.c **** //!
 767:ACE-ECF/Algorithm/src/fifo.c **** //! \note   -# You must enable USE_MEMORY_ALLOC macro and ensure your system have <stdlib.h>
 768:ACE-ECF/Algorithm/src/fifo.c **** //!            Header file before use this function.
 769:ACE-ECF/Algorithm/src/fifo.c **** //
 770:ACE-ECF/Algorithm/src/fifo.c **** //******************************************************************************************
 771:ACE-ECF/Algorithm/src/fifo.c **** void fifo_destory(fifo_t *p_fifo)
 772:ACE-ECF/Algorithm/src/fifo.c **** {
 1729              		.loc 1 772 1 is_stmt 1 view -0
 1730              		.cfi_startproc
 1731              		@ args = 0, pretend = 0, frame = 0
 1732              		@ frame_needed = 0, uses_anonymous_args = 0
 1733              		.loc 1 772 1 is_stmt 0 view .LVU569
 1734 0000 10B5     		push	{r4, lr}
 1735              	.LCFI9:
 1736              		.cfi_def_cfa_offset 8
 1737              		.cfi_offset 4, -8
 1738              		.cfi_offset 14, -4
 1739 0002 0446     		mov	r4, r0
 773:ACE-ECF/Algorithm/src/fifo.c ****     //! Check input parameters.
 774:ACE-ECF/Algorithm/src/fifo.c ****     ASSERT(p_fifo);
 1740              		.loc 1 774 19 is_stmt 1 view .LVU570
 775:ACE-ECF/Algorithm/src/fifo.c ****     ASSERT(p_fifo->p_start_addr);
 1741              		.loc 1 775 33 view .LVU571
 776:ACE-ECF/Algorithm/src/fifo.c **** 
 777:ACE-ECF/Algorithm/src/fifo.c ****     //! Free FIFO memory
 778:ACE-ECF/Algorithm/src/fifo.c ****     free(p_fifo->p_start_addr);
 1742              		.loc 1 778 5 view .LVU572
 1743 0004 0068     		ldr	r0, [r0]
 1744              	.LVL141:
 1745              		.loc 1 778 5 is_stmt 0 view .LVU573
 1746 0006 FFF7FEFF 		bl	free
 1747              	.LVL142:
 779:ACE-ECF/Algorithm/src/fifo.c ****     //! Free FIFO Control Block memory.
 780:ACE-ECF/Algorithm/src/fifo.c ****     free(p_fifo);
 1748              		.loc 1 780 5 is_stmt 1 view .LVU574
 1749 000a 2046     		mov	r0, r4
 1750 000c FFF7FEFF 		bl	free
 1751              	.LVL143:
 781:ACE-ECF/Algorithm/src/fifo.c **** 
 782:ACE-ECF/Algorithm/src/fifo.c ****     return; //!< Success
 1752              		.loc 1 782 5 view .LVU575
 783:ACE-ECF/Algorithm/src/fifo.c **** }
 1753              		.loc 1 783 1 is_stmt 0 view .LVU576
 1754 0010 10BD     		pop	{r4, pc}
 1755              		.loc 1 783 1 view .LVU577
 1756              		.cfi_endproc
 1757              	.LFE177:
 1759              		.section	.text.fifo_init,"ax",%progbits
 1760              		.align	1
 1761              		.global	fifo_init
 1762              		.syntax unified
 1763              		.thumb
 1764              		.thumb_func
 1766              	fifo_init:
ARM GAS  C:\Users\28212\AppData\Local\Temp\ccAB46Z4.s 			page 50


 1767              	.LVL144:
 1768              	.LFB178:
 784:ACE-ECF/Algorithm/src/fifo.c **** 
 785:ACE-ECF/Algorithm/src/fifo.c **** #endif // USE_DYNAMIC_MEMORY
 786:ACE-ECF/Algorithm/src/fifo.c **** 
 787:ACE-ECF/Algorithm/src/fifo.c **** //******************************************************************************************
 788:ACE-ECF/Algorithm/src/fifo.c **** //
 789:ACE-ECF/Algorithm/src/fifo.c **** //! \brief  Initialize an static FIFO struct.
 790:ACE-ECF/Algorithm/src/fifo.c **** //!
 791:ACE-ECF/Algorithm/src/fifo.c **** //! \param  [in] pFIFO is the pointer of valid FIFO instance.
 792:ACE-ECF/Algorithm/src/fifo.c **** //! \param  [in] pBaseAddr is the base address of pre-allocate memory, such as array.
 793:ACE-ECF/Algorithm/src/fifo.c **** //! \param  [in] UnitSize is fifo element size.
 794:ACE-ECF/Algorithm/src/fifo.c **** //! \param  [in] UnitCnt is count of fifo elements.
 795:ACE-ECF/Algorithm/src/fifo.c **** //! \retval 0 if initialize successfully, otherwise return -1.
 796:ACE-ECF/Algorithm/src/fifo.c **** //
 797:ACE-ECF/Algorithm/src/fifo.c **** //******************************************************************************************
 798:ACE-ECF/Algorithm/src/fifo.c **** int fifo_init(fifo_t *p_fifo, void *p_base_addr, char unit_size, int unit_cnt)
 799:ACE-ECF/Algorithm/src/fifo.c **** {
 1769              		.loc 1 799 1 is_stmt 1 view -0
 1770              		.cfi_startproc
 1771              		@ args = 0, pretend = 0, frame = 0
 1772              		@ frame_needed = 0, uses_anonymous_args = 0
 1773              		@ link register save eliminated.
 1774              		.loc 1 799 1 is_stmt 0 view .LVU579
 1775 0000 8446     		mov	ip, r0
 800:ACE-ECF/Algorithm/src/fifo.c ****     //! Check input parameters.
 801:ACE-ECF/Algorithm/src/fifo.c ****     ASSERT(p_fifo);
 1776              		.loc 1 801 19 is_stmt 1 view .LVU580
 802:ACE-ECF/Algorithm/src/fifo.c ****     ASSERT(p_base_addr);
 1777              		.loc 1 802 24 view .LVU581
 803:ACE-ECF/Algorithm/src/fifo.c ****     ASSERT(unit_size);
 1778              		.loc 1 803 22 view .LVU582
 804:ACE-ECF/Algorithm/src/fifo.c ****     ASSERT(unit_cnt);
 1779              		.loc 1 804 21 view .LVU583
 805:ACE-ECF/Algorithm/src/fifo.c **** 
 806:ACE-ECF/Algorithm/src/fifo.c ****     //! Initialize FIFO Control Block.
 807:ACE-ECF/Algorithm/src/fifo.c ****     p_fifo->p_start_addr = (char *)p_base_addr;
 1780              		.loc 1 807 5 view .LVU584
 1781              		.loc 1 807 26 is_stmt 0 view .LVU585
 1782 0002 0160     		str	r1, [r0]
 808:ACE-ECF/Algorithm/src/fifo.c ****     p_fifo->p_end_addr = (char *)p_base_addr + unit_size * unit_cnt - 1;
 1783              		.loc 1 808 5 is_stmt 1 view .LVU586
 1784              		.loc 1 808 58 is_stmt 0 view .LVU587
 1785 0004 03FB02F0 		mul	r0, r3, r2
 1786              	.LVL145:
 1787              		.loc 1 808 69 view .LVU588
 1788 0008 0138     		subs	r0, r0, #1
 1789 000a 0844     		add	r0, r0, r1
 1790              		.loc 1 808 24 view .LVU589
 1791 000c CCF80400 		str	r0, [ip, #4]
 809:ACE-ECF/Algorithm/src/fifo.c ****     p_fifo->free_num = unit_cnt;
 1792              		.loc 1 809 5 is_stmt 1 view .LVU590
 1793              		.loc 1 809 22 is_stmt 0 view .LVU591
 1794 0010 CCF80830 		str	r3, [ip, #8]
 810:ACE-ECF/Algorithm/src/fifo.c ****     p_fifo->used_num = 0;
 1795              		.loc 1 810 5 is_stmt 1 view .LVU592
 1796              		.loc 1 810 22 is_stmt 0 view .LVU593
ARM GAS  C:\Users\28212\AppData\Local\Temp\ccAB46Z4.s 			page 51


 1797 0014 0020     		movs	r0, #0
 1798 0016 CCF80C00 		str	r0, [ip, #12]
 811:ACE-ECF/Algorithm/src/fifo.c ****     p_fifo->unit_size = unit_size;
 1799              		.loc 1 811 5 is_stmt 1 view .LVU594
 1800              		.loc 1 811 23 is_stmt 0 view .LVU595
 1801 001a CCF81020 		str	r2, [ip, #16]
 812:ACE-ECF/Algorithm/src/fifo.c ****     p_fifo->p_read_addr = (char *)p_base_addr;
 1802              		.loc 1 812 5 is_stmt 1 view .LVU596
 1803              		.loc 1 812 25 is_stmt 0 view .LVU597
 1804 001e CCF81410 		str	r1, [ip, #20]
 813:ACE-ECF/Algorithm/src/fifo.c ****     p_fifo->p_write_addr = (char *)p_base_addr;
 1805              		.loc 1 813 5 is_stmt 1 view .LVU598
 1806              		.loc 1 813 26 is_stmt 0 view .LVU599
 1807 0022 CCF81810 		str	r1, [ip, #24]
 814:ACE-ECF/Algorithm/src/fifo.c **** 
 815:ACE-ECF/Algorithm/src/fifo.c ****     MUTEX_INIT(p_fifo->mutex);
 1808              		.loc 1 815 5 is_stmt 1 view .LVU600
 1809              		.loc 1 815 5 view .LVU601
 1810 0026 CCF81C00 		str	r0, [ip, #28]
 1811              		.loc 1 815 5 view .LVU602
 816:ACE-ECF/Algorithm/src/fifo.c **** 
 817:ACE-ECF/Algorithm/src/fifo.c ****     return (0);
 1812              		.loc 1 817 5 view .LVU603
 818:ACE-ECF/Algorithm/src/fifo.c **** }
 1813              		.loc 1 818 1 is_stmt 0 view .LVU604
 1814 002a 7047     		bx	lr
 1815              		.cfi_endproc
 1816              	.LFE178:
 1818              		.section	.text.fifo_create,"ax",%progbits
 1819              		.align	1
 1820              		.global	fifo_create
 1821              		.syntax unified
 1822              		.thumb
 1823              		.thumb_func
 1825              	fifo_create:
 1826              	.LVL146:
 1827              	.LFB176:
 728:ACE-ECF/Algorithm/src/fifo.c ****     fifo_t *p_fifo = NULL;    //!< FIFO Pointer
 1828              		.loc 1 728 1 is_stmt 1 view -0
 1829              		.cfi_startproc
 1830              		@ args = 0, pretend = 0, frame = 0
 1831              		@ frame_needed = 0, uses_anonymous_args = 0
 728:ACE-ECF/Algorithm/src/fifo.c ****     fifo_t *p_fifo = NULL;    //!< FIFO Pointer
 1832              		.loc 1 728 1 is_stmt 0 view .LVU606
 1833 0000 F8B5     		push	{r3, r4, r5, r6, r7, lr}
 1834              	.LCFI10:
 1835              		.cfi_def_cfa_offset 24
 1836              		.cfi_offset 3, -24
 1837              		.cfi_offset 4, -20
 1838              		.cfi_offset 5, -16
 1839              		.cfi_offset 6, -12
 1840              		.cfi_offset 7, -8
 1841              		.cfi_offset 14, -4
 1842 0002 0446     		mov	r4, r0
 1843 0004 0D46     		mov	r5, r1
 729:ACE-ECF/Algorithm/src/fifo.c ****     char *p_base_addr = NULL; //!< Memory Base Address
 1844              		.loc 1 729 5 is_stmt 1 view .LVU607
ARM GAS  C:\Users\28212\AppData\Local\Temp\ccAB46Z4.s 			page 52


 1845              	.LVL147:
 730:ACE-ECF/Algorithm/src/fifo.c **** 
 1846              		.loc 1 730 5 view .LVU608
 733:ACE-ECF/Algorithm/src/fifo.c ****     ASSERT(unit_cnt);
 1847              		.loc 1 733 22 view .LVU609
 734:ACE-ECF/Algorithm/src/fifo.c **** 
 1848              		.loc 1 734 21 view .LVU610
 737:ACE-ECF/Algorithm/src/fifo.c ****     if (NULL == p_fifo)
 1849              		.loc 1 737 5 view .LVU611
 737:ACE-ECF/Algorithm/src/fifo.c ****     if (NULL == p_fifo)
 1850              		.loc 1 737 24 is_stmt 0 view .LVU612
 1851 0006 2020     		movs	r0, #32
 1852              	.LVL148:
 737:ACE-ECF/Algorithm/src/fifo.c ****     if (NULL == p_fifo)
 1853              		.loc 1 737 24 view .LVU613
 1854 0008 FFF7FEFF 		bl	malloc
 1855              	.LVL149:
 738:ACE-ECF/Algorithm/src/fifo.c ****     {
 1856              		.loc 1 738 5 is_stmt 1 view .LVU614
 738:ACE-ECF/Algorithm/src/fifo.c ****     {
 1857              		.loc 1 738 8 is_stmt 0 view .LVU615
 1858 000c 0646     		mov	r6, r0
 1859 000e 58B1     		cbz	r0, .L83
 745:ACE-ECF/Algorithm/src/fifo.c ****     if (NULL == p_base_addr)
 1860              		.loc 1 745 5 is_stmt 1 view .LVU616
 745:ACE-ECF/Algorithm/src/fifo.c ****     if (NULL == p_base_addr)
 1861              		.loc 1 745 19 is_stmt 0 view .LVU617
 1862 0010 05FB04F0 		mul	r0, r5, r4
 1863              	.LVL150:
 745:ACE-ECF/Algorithm/src/fifo.c ****     if (NULL == p_base_addr)
 1864              		.loc 1 745 19 view .LVU618
 1865 0014 FFF7FEFF 		bl	malloc
 1866              	.LVL151:
 746:ACE-ECF/Algorithm/src/fifo.c ****     {
 1867              		.loc 1 746 5 is_stmt 1 view .LVU619
 746:ACE-ECF/Algorithm/src/fifo.c ****     {
 1868              		.loc 1 746 8 is_stmt 0 view .LVU620
 1869 0018 0746     		mov	r7, r0
 1870 001a 38B1     		cbz	r0, .L87
 754:ACE-ECF/Algorithm/src/fifo.c **** 
 1871              		.loc 1 754 5 is_stmt 1 view .LVU621
 1872 001c 2B46     		mov	r3, r5
 1873 001e 2246     		mov	r2, r4
 1874 0020 0146     		mov	r1, r0
 1875 0022 3046     		mov	r0, r6
 1876              	.LVL152:
 754:ACE-ECF/Algorithm/src/fifo.c **** 
 1877              		.loc 1 754 5 is_stmt 0 view .LVU622
 1878 0024 FFF7FEFF 		bl	fifo_init
 1879              	.LVL153:
 756:ACE-ECF/Algorithm/src/fifo.c **** }
 1880              		.loc 1 756 5 is_stmt 1 view .LVU623
 1881              	.L83:
 757:ACE-ECF/Algorithm/src/fifo.c **** 
 1882              		.loc 1 757 1 is_stmt 0 view .LVU624
 1883 0028 3046     		mov	r0, r6
 1884 002a F8BD     		pop	{r3, r4, r5, r6, r7, pc}
ARM GAS  C:\Users\28212\AppData\Local\Temp\ccAB46Z4.s 			page 53


 1885              	.LVL154:
 1886              	.L87:
 749:ACE-ECF/Algorithm/src/fifo.c ****         return (NULL);
 1887              		.loc 1 749 9 is_stmt 1 view .LVU625
 1888 002c 3046     		mov	r0, r6
 1889              	.LVL155:
 749:ACE-ECF/Algorithm/src/fifo.c ****         return (NULL);
 1890              		.loc 1 749 9 is_stmt 0 view .LVU626
 1891 002e FFF7FEFF 		bl	free
 1892              	.LVL156:
 750:ACE-ECF/Algorithm/src/fifo.c ****     }
 1893              		.loc 1 750 9 is_stmt 1 view .LVU627
 750:ACE-ECF/Algorithm/src/fifo.c ****     }
 1894              		.loc 1 750 16 is_stmt 0 view .LVU628
 1895 0032 3E46     		mov	r6, r7
 1896              	.LVL157:
 750:ACE-ECF/Algorithm/src/fifo.c ****     }
 1897              		.loc 1 750 16 view .LVU629
 1898 0034 F8E7     		b	.L83
 1899              		.cfi_endproc
 1900              	.LFE176:
 1902              		.section	.text.fifo_put,"ax",%progbits
 1903              		.align	1
 1904              		.global	fifo_put
 1905              		.syntax unified
 1906              		.thumb
 1907              		.thumb_func
 1909              	fifo_put:
 1910              	.LVL158:
 1911              	.LFB179:
 819:ACE-ECF/Algorithm/src/fifo.c **** 
 820:ACE-ECF/Algorithm/src/fifo.c **** //******************************************************************************************
 821:ACE-ECF/Algorithm/src/fifo.c **** //
 822:ACE-ECF/Algorithm/src/fifo.c **** //! \brief  Put an element into FIFO.
 823:ACE-ECF/Algorithm/src/fifo.c **** //!
 824:ACE-ECF/Algorithm/src/fifo.c **** //! \param  [in]  pFIFO is the pointer of valid FIFO.
 825:ACE-ECF/Algorithm/src/fifo.c **** //! \param  [in]  pElement is the address of element you want to put
 826:ACE-ECF/Algorithm/src/fifo.c **** //!
 827:ACE-ECF/Algorithm/src/fifo.c **** //! \retval 0 if operate successfully, otherwise return -1.
 828:ACE-ECF/Algorithm/src/fifo.c **** //
 829:ACE-ECF/Algorithm/src/fifo.c **** //******************************************************************************************
 830:ACE-ECF/Algorithm/src/fifo.c **** int fifo_put(fifo_t *p_fifo, void *p_element)
 831:ACE-ECF/Algorithm/src/fifo.c **** {
 1912              		.loc 1 831 1 is_stmt 1 view -0
 1913              		.cfi_startproc
 1914              		@ args = 0, pretend = 0, frame = 0
 1915              		@ frame_needed = 0, uses_anonymous_args = 0
 832:ACE-ECF/Algorithm/src/fifo.c ****     //! Check input parameters.
 833:ACE-ECF/Algorithm/src/fifo.c ****     ASSERT(p_fifo);
 1916              		.loc 1 833 19 view .LVU631
 834:ACE-ECF/Algorithm/src/fifo.c ****     ASSERT(p_element);
 1917              		.loc 1 834 22 view .LVU632
 835:ACE-ECF/Algorithm/src/fifo.c **** 
 836:ACE-ECF/Algorithm/src/fifo.c ****     // Full ?
 837:ACE-ECF/Algorithm/src/fifo.c ****     if (0 == p_fifo->free_num)
 1918              		.loc 1 837 5 view .LVU633
 1919              		.loc 1 837 20 is_stmt 0 view .LVU634
ARM GAS  C:\Users\28212\AppData\Local\Temp\ccAB46Z4.s 			page 54


 1920 0000 8368     		ldr	r3, [r0, #8]
 1921              		.loc 1 837 8 view .LVU635
 1922 0002 FBB1     		cbz	r3, .L92
 831:ACE-ECF/Algorithm/src/fifo.c ****     //! Check input parameters.
 1923              		.loc 1 831 1 view .LVU636
 1924 0004 10B5     		push	{r4, lr}
 1925              	.LCFI11:
 1926              		.cfi_def_cfa_offset 8
 1927              		.cfi_offset 4, -8
 1928              		.cfi_offset 14, -4
 1929 0006 0446     		mov	r4, r0
 838:ACE-ECF/Algorithm/src/fifo.c ****     {
 839:ACE-ECF/Algorithm/src/fifo.c ****         //! Error, FIFO is full!
 840:ACE-ECF/Algorithm/src/fifo.c ****         return (-1);
 841:ACE-ECF/Algorithm/src/fifo.c ****     }
 842:ACE-ECF/Algorithm/src/fifo.c **** 
 843:ACE-ECF/Algorithm/src/fifo.c ****     //! Copy Data
 844:ACE-ECF/Algorithm/src/fifo.c ****     MUTEX_LOCK(p_fifo->mutex);
 1930              		.loc 1 844 5 is_stmt 1 view .LVU637
 1931              		.loc 1 844 5 view .LVU638
 1932              	.LBB98:
 1933              	.LBI98:
 140:Drivers/CMSIS/Include/cmsis_gcc.h **** {
 1934              		.loc 2 140 27 view .LVU639
 1935              	.LBB99:
 1936              		.loc 2 142 3 view .LVU640
 1937              		.syntax unified
 1938              	@ 142 "Drivers/CMSIS/Include/cmsis_gcc.h" 1
 1939 0008 72B6     		cpsid i
 1940              	@ 0 "" 2
 1941              		.thumb
 1942              		.syntax unified
 1943              	.LBE99:
 1944              	.LBE98:
 1945              		.loc 1 844 5 view .LVU641
 845:ACE-ECF/Algorithm/src/fifo.c **** 
 846:ACE-ECF/Algorithm/src/fifo.c ****     if (0 == p_fifo->free_num)
 1946              		.loc 1 846 5 view .LVU642
 1947              		.loc 1 846 20 is_stmt 0 view .LVU643
 1948 000a 8368     		ldr	r3, [r0, #8]
 1949              		.loc 1 846 8 view .LVU644
 1950 000c B3B1     		cbz	r3, .L97
 847:ACE-ECF/Algorithm/src/fifo.c ****     {
 848:ACE-ECF/Algorithm/src/fifo.c ****         //! Error, FIFO is full!
 849:ACE-ECF/Algorithm/src/fifo.c ****         MUTEX_UNLOCK(p_fifo->mutex);
 850:ACE-ECF/Algorithm/src/fifo.c ****         return (-1);
 851:ACE-ECF/Algorithm/src/fifo.c ****     }
 852:ACE-ECF/Algorithm/src/fifo.c **** 
 853:ACE-ECF/Algorithm/src/fifo.c ****     if (p_fifo->p_write_addr > p_fifo->p_end_addr)
 1951              		.loc 1 853 5 is_stmt 1 view .LVU645
 1952              		.loc 1 853 15 is_stmt 0 view .LVU646
 1953 000e 8269     		ldr	r2, [r0, #24]
 1954              		.loc 1 853 38 view .LVU647
 1955 0010 4368     		ldr	r3, [r0, #4]
 1956              		.loc 1 853 8 view .LVU648
 1957 0012 9A42     		cmp	r2, r3
 1958 0014 01D9     		bls	.L91
ARM GAS  C:\Users\28212\AppData\Local\Temp\ccAB46Z4.s 			page 55


 854:ACE-ECF/Algorithm/src/fifo.c ****     {
 855:ACE-ECF/Algorithm/src/fifo.c ****         p_fifo->p_write_addr = p_fifo->p_start_addr;
 1959              		.loc 1 855 9 is_stmt 1 view .LVU649
 1960              		.loc 1 855 38 is_stmt 0 view .LVU650
 1961 0016 0368     		ldr	r3, [r0]
 1962              		.loc 1 855 30 view .LVU651
 1963 0018 8361     		str	r3, [r0, #24]
 1964              	.L91:
 856:ACE-ECF/Algorithm/src/fifo.c ****     }
 857:ACE-ECF/Algorithm/src/fifo.c **** 
 858:ACE-ECF/Algorithm/src/fifo.c ****     memcpy(p_fifo->p_write_addr, p_element, p_fifo->unit_size);
 1965              		.loc 1 858 5 is_stmt 1 view .LVU652
 1966 001a 2269     		ldr	r2, [r4, #16]
 1967 001c A069     		ldr	r0, [r4, #24]
 1968              	.LVL159:
 1969              		.loc 1 858 5 is_stmt 0 view .LVU653
 1970 001e FFF7FEFF 		bl	memcpy
 1971              	.LVL160:
 859:ACE-ECF/Algorithm/src/fifo.c ****     p_fifo->p_write_addr += p_fifo->unit_size;
 1972              		.loc 1 859 5 is_stmt 1 view .LVU654
 1973              		.loc 1 859 35 is_stmt 0 view .LVU655
 1974 0022 2269     		ldr	r2, [r4, #16]
 1975              		.loc 1 859 26 view .LVU656
 1976 0024 A369     		ldr	r3, [r4, #24]
 1977 0026 1344     		add	r3, r3, r2
 1978 0028 A361     		str	r3, [r4, #24]
 860:ACE-ECF/Algorithm/src/fifo.c ****     p_fifo->free_num--;
 1979              		.loc 1 860 5 is_stmt 1 view .LVU657
 1980              		.loc 1 860 11 is_stmt 0 view .LVU658
 1981 002a A368     		ldr	r3, [r4, #8]
 1982              		.loc 1 860 21 view .LVU659
 1983 002c 013B     		subs	r3, r3, #1
 1984 002e A360     		str	r3, [r4, #8]
 861:ACE-ECF/Algorithm/src/fifo.c ****     p_fifo->used_num++;
 1985              		.loc 1 861 5 is_stmt 1 view .LVU660
 1986              		.loc 1 861 11 is_stmt 0 view .LVU661
 1987 0030 E368     		ldr	r3, [r4, #12]
 1988              		.loc 1 861 21 view .LVU662
 1989 0032 0133     		adds	r3, r3, #1
 1990 0034 E360     		str	r3, [r4, #12]
 862:ACE-ECF/Algorithm/src/fifo.c ****     MUTEX_UNLOCK(p_fifo->mutex);
 1991              		.loc 1 862 5 is_stmt 1 view .LVU663
 1992              		.loc 1 862 5 view .LVU664
 1993              	.LBB100:
 1994              	.LBI100:
 129:Drivers/CMSIS/Include/cmsis_gcc.h **** {
 1995              		.loc 2 129 27 view .LVU665
 1996              	.LBB101:
 131:Drivers/CMSIS/Include/cmsis_gcc.h **** }
 1997              		.loc 2 131 3 view .LVU666
 1998              		.syntax unified
 1999              	@ 131 "Drivers/CMSIS/Include/cmsis_gcc.h" 1
 2000 0036 62B6     		cpsie i
 2001              	@ 0 "" 2
 2002              		.thumb
 2003              		.syntax unified
 2004              	.LBE101:
ARM GAS  C:\Users\28212\AppData\Local\Temp\ccAB46Z4.s 			page 56


 2005              	.LBE100:
 2006              		.loc 1 862 5 view .LVU667
 863:ACE-ECF/Algorithm/src/fifo.c **** 
 864:ACE-ECF/Algorithm/src/fifo.c ****     return (0);
 2007              		.loc 1 864 5 view .LVU668
 2008              		.loc 1 864 12 is_stmt 0 view .LVU669
 2009 0038 0020     		movs	r0, #0
 2010              	.L88:
 865:ACE-ECF/Algorithm/src/fifo.c **** }
 2011              		.loc 1 865 1 view .LVU670
 2012 003a 10BD     		pop	{r4, pc}
 2013              	.LVL161:
 2014              	.L97:
 849:ACE-ECF/Algorithm/src/fifo.c ****         return (-1);
 2015              		.loc 1 849 9 is_stmt 1 view .LVU671
 849:ACE-ECF/Algorithm/src/fifo.c ****         return (-1);
 2016              		.loc 1 849 9 view .LVU672
 2017              	.LBB102:
 2018              	.LBI102:
 129:Drivers/CMSIS/Include/cmsis_gcc.h **** {
 2019              		.loc 2 129 27 view .LVU673
 2020              	.LBB103:
 131:Drivers/CMSIS/Include/cmsis_gcc.h **** }
 2021              		.loc 2 131 3 view .LVU674
 2022              		.syntax unified
 2023              	@ 131 "Drivers/CMSIS/Include/cmsis_gcc.h" 1
 2024 003c 62B6     		cpsie i
 2025              	@ 0 "" 2
 2026              		.thumb
 2027              		.syntax unified
 2028              	.LBE103:
 2029              	.LBE102:
 849:ACE-ECF/Algorithm/src/fifo.c ****         return (-1);
 2030              		.loc 1 849 9 view .LVU675
 850:ACE-ECF/Algorithm/src/fifo.c ****     }
 2031              		.loc 1 850 9 view .LVU676
 850:ACE-ECF/Algorithm/src/fifo.c ****     }
 2032              		.loc 1 850 16 is_stmt 0 view .LVU677
 2033 003e 4FF0FF30 		mov	r0, #-1
 2034              	.LVL162:
 850:ACE-ECF/Algorithm/src/fifo.c ****     }
 2035              		.loc 1 850 16 view .LVU678
 2036 0042 FAE7     		b	.L88
 2037              	.LVL163:
 2038              	.L92:
 2039              	.LCFI12:
 2040              		.cfi_def_cfa_offset 0
 2041              		.cfi_restore 4
 2042              		.cfi_restore 14
 840:ACE-ECF/Algorithm/src/fifo.c ****     }
 2043              		.loc 1 840 16 view .LVU679
 2044 0044 4FF0FF30 		mov	r0, #-1
 2045              	.LVL164:
 2046              		.loc 1 865 1 view .LVU680
 2047 0048 7047     		bx	lr
 2048              		.cfi_endproc
 2049              	.LFE179:
ARM GAS  C:\Users\28212\AppData\Local\Temp\ccAB46Z4.s 			page 57


 2051              		.section	.text.fifo_put_noprotect,"ax",%progbits
 2052              		.align	1
 2053              		.global	fifo_put_noprotect
 2054              		.syntax unified
 2055              		.thumb
 2056              		.thumb_func
 2058              	fifo_put_noprotect:
 2059              	.LVL165:
 2060              	.LFB180:
 866:ACE-ECF/Algorithm/src/fifo.c **** 
 867:ACE-ECF/Algorithm/src/fifo.c **** //******************************************************************************************
 868:ACE-ECF/Algorithm/src/fifo.c **** //
 869:ACE-ECF/Algorithm/src/fifo.c **** //! \brief  Put an element into FIFO without protect.
 870:ACE-ECF/Algorithm/src/fifo.c **** //!
 871:ACE-ECF/Algorithm/src/fifo.c **** //! \param  [in]  pFIFO is the pointer of valid FIFO.
 872:ACE-ECF/Algorithm/src/fifo.c **** //! \param  [in]  pElement is the address of element you want to put
 873:ACE-ECF/Algorithm/src/fifo.c **** //!
 874:ACE-ECF/Algorithm/src/fifo.c **** //! \retval 0 if operate successfully, otherwise return -1.
 875:ACE-ECF/Algorithm/src/fifo.c **** //
 876:ACE-ECF/Algorithm/src/fifo.c **** //******************************************************************************************
 877:ACE-ECF/Algorithm/src/fifo.c **** int fifo_put_noprotect(fifo_t *p_fifo, void *p_element)
 878:ACE-ECF/Algorithm/src/fifo.c **** {
 2061              		.loc 1 878 1 is_stmt 1 view -0
 2062              		.cfi_startproc
 2063              		@ args = 0, pretend = 0, frame = 0
 2064              		@ frame_needed = 0, uses_anonymous_args = 0
 879:ACE-ECF/Algorithm/src/fifo.c ****     //! Check input parameters.
 880:ACE-ECF/Algorithm/src/fifo.c ****     ASSERT(p_fifo);
 2065              		.loc 1 880 19 view .LVU682
 881:ACE-ECF/Algorithm/src/fifo.c ****     ASSERT(p_element);
 2066              		.loc 1 881 22 view .LVU683
 882:ACE-ECF/Algorithm/src/fifo.c **** 
 883:ACE-ECF/Algorithm/src/fifo.c ****     // Full ?
 884:ACE-ECF/Algorithm/src/fifo.c ****     if (0 == p_fifo->free_num)
 2067              		.loc 1 884 5 view .LVU684
 2068              		.loc 1 884 20 is_stmt 0 view .LVU685
 2069 0000 8368     		ldr	r3, [r0, #8]
 2070              		.loc 1 884 8 view .LVU686
 2071 0002 BBB1     		cbz	r3, .L101
 878:ACE-ECF/Algorithm/src/fifo.c ****     //! Check input parameters.
 2072              		.loc 1 878 1 view .LVU687
 2073 0004 10B5     		push	{r4, lr}
 2074              	.LCFI13:
 2075              		.cfi_def_cfa_offset 8
 2076              		.cfi_offset 4, -8
 2077              		.cfi_offset 14, -4
 2078 0006 0446     		mov	r4, r0
 885:ACE-ECF/Algorithm/src/fifo.c ****     {
 886:ACE-ECF/Algorithm/src/fifo.c ****         //! Error, FIFO is full!
 887:ACE-ECF/Algorithm/src/fifo.c ****         return (-1);
 888:ACE-ECF/Algorithm/src/fifo.c ****     }
 889:ACE-ECF/Algorithm/src/fifo.c **** 
 890:ACE-ECF/Algorithm/src/fifo.c ****     if (p_fifo->p_write_addr > p_fifo->p_end_addr)
 2079              		.loc 1 890 5 is_stmt 1 view .LVU688
 2080              		.loc 1 890 15 is_stmt 0 view .LVU689
 2081 0008 8269     		ldr	r2, [r0, #24]
 2082              		.loc 1 890 38 view .LVU690
ARM GAS  C:\Users\28212\AppData\Local\Temp\ccAB46Z4.s 			page 58


 2083 000a 4368     		ldr	r3, [r0, #4]
 2084              		.loc 1 890 8 view .LVU691
 2085 000c 9A42     		cmp	r2, r3
 2086 000e 01D9     		bls	.L100
 891:ACE-ECF/Algorithm/src/fifo.c ****     {
 892:ACE-ECF/Algorithm/src/fifo.c ****         p_fifo->p_write_addr = p_fifo->p_start_addr;
 2087              		.loc 1 892 9 is_stmt 1 view .LVU692
 2088              		.loc 1 892 38 is_stmt 0 view .LVU693
 2089 0010 0368     		ldr	r3, [r0]
 2090              		.loc 1 892 30 view .LVU694
 2091 0012 8361     		str	r3, [r0, #24]
 2092              	.L100:
 893:ACE-ECF/Algorithm/src/fifo.c ****     }
 894:ACE-ECF/Algorithm/src/fifo.c **** 
 895:ACE-ECF/Algorithm/src/fifo.c ****     memcpy(p_fifo->p_write_addr, p_element, p_fifo->unit_size);
 2093              		.loc 1 895 5 is_stmt 1 view .LVU695
 2094 0014 2269     		ldr	r2, [r4, #16]
 2095 0016 A069     		ldr	r0, [r4, #24]
 2096              	.LVL166:
 2097              		.loc 1 895 5 is_stmt 0 view .LVU696
 2098 0018 FFF7FEFF 		bl	memcpy
 2099              	.LVL167:
 896:ACE-ECF/Algorithm/src/fifo.c ****     p_fifo->p_write_addr += p_fifo->unit_size;
 2100              		.loc 1 896 5 is_stmt 1 view .LVU697
 2101              		.loc 1 896 35 is_stmt 0 view .LVU698
 2102 001c 2269     		ldr	r2, [r4, #16]
 2103              		.loc 1 896 26 view .LVU699
 2104 001e A369     		ldr	r3, [r4, #24]
 2105 0020 1344     		add	r3, r3, r2
 2106 0022 A361     		str	r3, [r4, #24]
 897:ACE-ECF/Algorithm/src/fifo.c ****     p_fifo->free_num--;
 2107              		.loc 1 897 5 is_stmt 1 view .LVU700
 2108              		.loc 1 897 11 is_stmt 0 view .LVU701
 2109 0024 A368     		ldr	r3, [r4, #8]
 2110              		.loc 1 897 21 view .LVU702
 2111 0026 013B     		subs	r3, r3, #1
 2112 0028 A360     		str	r3, [r4, #8]
 898:ACE-ECF/Algorithm/src/fifo.c ****     p_fifo->used_num++;
 2113              		.loc 1 898 5 is_stmt 1 view .LVU703
 2114              		.loc 1 898 11 is_stmt 0 view .LVU704
 2115 002a E368     		ldr	r3, [r4, #12]
 2116              		.loc 1 898 21 view .LVU705
 2117 002c 0133     		adds	r3, r3, #1
 2118 002e E360     		str	r3, [r4, #12]
 899:ACE-ECF/Algorithm/src/fifo.c **** 
 900:ACE-ECF/Algorithm/src/fifo.c ****     return (0);
 2119              		.loc 1 900 5 is_stmt 1 view .LVU706
 2120              		.loc 1 900 12 is_stmt 0 view .LVU707
 2121 0030 0020     		movs	r0, #0
 901:ACE-ECF/Algorithm/src/fifo.c **** }
 2122              		.loc 1 901 1 view .LVU708
 2123 0032 10BD     		pop	{r4, pc}
 2124              	.LVL168:
 2125              	.L101:
 2126              	.LCFI14:
 2127              		.cfi_def_cfa_offset 0
 2128              		.cfi_restore 4
ARM GAS  C:\Users\28212\AppData\Local\Temp\ccAB46Z4.s 			page 59


 2129              		.cfi_restore 14
 887:ACE-ECF/Algorithm/src/fifo.c ****     }
 2130              		.loc 1 887 16 view .LVU709
 2131 0034 4FF0FF30 		mov	r0, #-1
 2132              	.LVL169:
 2133              		.loc 1 901 1 view .LVU710
 2134 0038 7047     		bx	lr
 2135              		.cfi_endproc
 2136              	.LFE180:
 2138              		.section	.text.fifo_get,"ax",%progbits
 2139              		.align	1
 2140              		.global	fifo_get
 2141              		.syntax unified
 2142              		.thumb
 2143              		.thumb_func
 2145              	fifo_get:
 2146              	.LVL170:
 2147              	.LFB181:
 902:ACE-ECF/Algorithm/src/fifo.c **** 
 903:ACE-ECF/Algorithm/src/fifo.c **** //******************************************************************************************
 904:ACE-ECF/Algorithm/src/fifo.c **** //
 905:ACE-ECF/Algorithm/src/fifo.c **** //! \brief  Get an element from FIFO without protect.
 906:ACE-ECF/Algorithm/src/fifo.c **** //!
 907:ACE-ECF/Algorithm/src/fifo.c **** //! \param  [in]  pFIFO is the pointer of valid FIFO.
 908:ACE-ECF/Algorithm/src/fifo.c **** //! \param  [out] pElement is the address of element you want to get
 909:ACE-ECF/Algorithm/src/fifo.c **** //!
 910:ACE-ECF/Algorithm/src/fifo.c **** //! \retval 0 if operate successfully, otherwise return -1.
 911:ACE-ECF/Algorithm/src/fifo.c **** //
 912:ACE-ECF/Algorithm/src/fifo.c **** //******************************************************************************************
 913:ACE-ECF/Algorithm/src/fifo.c **** int fifo_get(fifo_t *p_fifo, void *p_element)
 914:ACE-ECF/Algorithm/src/fifo.c **** {
 2148              		.loc 1 914 1 is_stmt 1 view -0
 2149              		.cfi_startproc
 2150              		@ args = 0, pretend = 0, frame = 0
 2151              		@ frame_needed = 0, uses_anonymous_args = 0
 2152              		.loc 1 914 1 is_stmt 0 view .LVU712
 2153 0000 10B5     		push	{r4, lr}
 2154              	.LCFI15:
 2155              		.cfi_def_cfa_offset 8
 2156              		.cfi_offset 4, -8
 2157              		.cfi_offset 14, -4
 2158 0002 0446     		mov	r4, r0
 915:ACE-ECF/Algorithm/src/fifo.c ****     //! Check input parameters.
 916:ACE-ECF/Algorithm/src/fifo.c ****     ASSERT(p_fifo);
 2159              		.loc 1 916 19 is_stmt 1 view .LVU713
 917:ACE-ECF/Algorithm/src/fifo.c ****     ASSERT(p_element);
 2160              		.loc 1 917 22 view .LVU714
 918:ACE-ECF/Algorithm/src/fifo.c **** 
 919:ACE-ECF/Algorithm/src/fifo.c ****     // Empty ?
 920:ACE-ECF/Algorithm/src/fifo.c ****     if (0 == p_fifo->used_num)
 2161              		.loc 1 920 5 view .LVU715
 2162              		.loc 1 920 20 is_stmt 0 view .LVU716
 2163 0004 C368     		ldr	r3, [r0, #12]
 2164              		.loc 1 920 8 view .LVU717
 2165 0006 F3B1     		cbz	r3, .L110
 2166 0008 0846     		mov	r0, r1
 2167              	.LVL171:
ARM GAS  C:\Users\28212\AppData\Local\Temp\ccAB46Z4.s 			page 60


 921:ACE-ECF/Algorithm/src/fifo.c ****     {
 922:ACE-ECF/Algorithm/src/fifo.c ****         //! Error, FIFO is Empty!
 923:ACE-ECF/Algorithm/src/fifo.c ****         return (-1);
 924:ACE-ECF/Algorithm/src/fifo.c ****     }
 925:ACE-ECF/Algorithm/src/fifo.c **** 
 926:ACE-ECF/Algorithm/src/fifo.c ****     //! Copy Data
 927:ACE-ECF/Algorithm/src/fifo.c ****     MUTEX_LOCK(p_fifo->mutex);
 2168              		.loc 1 927 5 is_stmt 1 view .LVU718
 2169              		.loc 1 927 5 view .LVU719
 2170              	.LBB104:
 2171              	.LBI104:
 140:Drivers/CMSIS/Include/cmsis_gcc.h **** {
 2172              		.loc 2 140 27 view .LVU720
 2173              	.LBB105:
 2174              		.loc 2 142 3 view .LVU721
 2175              		.syntax unified
 2176              	@ 142 "Drivers/CMSIS/Include/cmsis_gcc.h" 1
 2177 000a 72B6     		cpsid i
 2178              	@ 0 "" 2
 2179              		.thumb
 2180              		.syntax unified
 2181              	.LBE105:
 2182              	.LBE104:
 2183              		.loc 1 927 5 view .LVU722
 928:ACE-ECF/Algorithm/src/fifo.c **** 
 929:ACE-ECF/Algorithm/src/fifo.c ****     if (0 == p_fifo->used_num)
 2184              		.loc 1 929 5 view .LVU723
 2185              		.loc 1 929 20 is_stmt 0 view .LVU724
 2186 000c E368     		ldr	r3, [r4, #12]
 2187              		.loc 1 929 8 view .LVU725
 2188 000e B3B1     		cbz	r3, .L112
 930:ACE-ECF/Algorithm/src/fifo.c ****     {
 931:ACE-ECF/Algorithm/src/fifo.c ****         //! Error, FIFO is Empty!
 932:ACE-ECF/Algorithm/src/fifo.c ****         MUTEX_UNLOCK(p_fifo->mutex);
 933:ACE-ECF/Algorithm/src/fifo.c ****         return (-1);
 934:ACE-ECF/Algorithm/src/fifo.c ****     }
 935:ACE-ECF/Algorithm/src/fifo.c **** 
 936:ACE-ECF/Algorithm/src/fifo.c ****     if (p_fifo->p_read_addr > p_fifo->p_end_addr)
 2189              		.loc 1 936 5 is_stmt 1 view .LVU726
 2190              		.loc 1 936 15 is_stmt 0 view .LVU727
 2191 0010 6269     		ldr	r2, [r4, #20]
 2192              		.loc 1 936 37 view .LVU728
 2193 0012 6368     		ldr	r3, [r4, #4]
 2194              		.loc 1 936 8 view .LVU729
 2195 0014 9A42     		cmp	r2, r3
 2196 0016 01D9     		bls	.L109
 937:ACE-ECF/Algorithm/src/fifo.c ****     {
 938:ACE-ECF/Algorithm/src/fifo.c ****         p_fifo->p_read_addr = p_fifo->p_start_addr;
 2197              		.loc 1 938 9 is_stmt 1 view .LVU730
 2198              		.loc 1 938 37 is_stmt 0 view .LVU731
 2199 0018 2368     		ldr	r3, [r4]
 2200              		.loc 1 938 29 view .LVU732
 2201 001a 6361     		str	r3, [r4, #20]
 2202              	.L109:
 939:ACE-ECF/Algorithm/src/fifo.c ****     }
 940:ACE-ECF/Algorithm/src/fifo.c ****     memcpy(p_element, p_fifo->p_read_addr, p_fifo->unit_size);
 2203              		.loc 1 940 5 is_stmt 1 view .LVU733
ARM GAS  C:\Users\28212\AppData\Local\Temp\ccAB46Z4.s 			page 61


 2204 001c 2269     		ldr	r2, [r4, #16]
 2205 001e 6169     		ldr	r1, [r4, #20]
 2206              	.LVL172:
 2207              		.loc 1 940 5 is_stmt 0 view .LVU734
 2208 0020 FFF7FEFF 		bl	memcpy
 2209              	.LVL173:
 941:ACE-ECF/Algorithm/src/fifo.c ****     p_fifo->p_read_addr += p_fifo->unit_size;
 2210              		.loc 1 941 5 is_stmt 1 view .LVU735
 2211              		.loc 1 941 34 is_stmt 0 view .LVU736
 2212 0024 2269     		ldr	r2, [r4, #16]
 2213              		.loc 1 941 25 view .LVU737
 2214 0026 6369     		ldr	r3, [r4, #20]
 2215 0028 1344     		add	r3, r3, r2
 2216 002a 6361     		str	r3, [r4, #20]
 942:ACE-ECF/Algorithm/src/fifo.c ****     p_fifo->free_num++;
 2217              		.loc 1 942 5 is_stmt 1 view .LVU738
 2218              		.loc 1 942 11 is_stmt 0 view .LVU739
 2219 002c A368     		ldr	r3, [r4, #8]
 2220              		.loc 1 942 21 view .LVU740
 2221 002e 0133     		adds	r3, r3, #1
 2222 0030 A360     		str	r3, [r4, #8]
 943:ACE-ECF/Algorithm/src/fifo.c ****     p_fifo->used_num--;
 2223              		.loc 1 943 5 is_stmt 1 view .LVU741
 2224              		.loc 1 943 11 is_stmt 0 view .LVU742
 2225 0032 E368     		ldr	r3, [r4, #12]
 2226              		.loc 1 943 21 view .LVU743
 2227 0034 013B     		subs	r3, r3, #1
 2228 0036 E360     		str	r3, [r4, #12]
 944:ACE-ECF/Algorithm/src/fifo.c ****     MUTEX_UNLOCK(p_fifo->mutex);
 2229              		.loc 1 944 5 is_stmt 1 view .LVU744
 2230              		.loc 1 944 5 view .LVU745
 2231              	.LBB106:
 2232              	.LBI106:
 129:Drivers/CMSIS/Include/cmsis_gcc.h **** {
 2233              		.loc 2 129 27 view .LVU746
 2234              	.LBB107:
 131:Drivers/CMSIS/Include/cmsis_gcc.h **** }
 2235              		.loc 2 131 3 view .LVU747
 2236              		.syntax unified
 2237              	@ 131 "Drivers/CMSIS/Include/cmsis_gcc.h" 1
 2238 0038 62B6     		cpsie i
 2239              	@ 0 "" 2
 2240              		.thumb
 2241              		.syntax unified
 2242              	.LBE107:
 2243              	.LBE106:
 2244              		.loc 1 944 5 view .LVU748
 945:ACE-ECF/Algorithm/src/fifo.c **** 
 946:ACE-ECF/Algorithm/src/fifo.c ****     return (0);
 2245              		.loc 1 946 5 view .LVU749
 2246              		.loc 1 946 12 is_stmt 0 view .LVU750
 2247 003a 0020     		movs	r0, #0
 2248              	.L106:
 947:ACE-ECF/Algorithm/src/fifo.c **** }
 2249              		.loc 1 947 1 view .LVU751
 2250 003c 10BD     		pop	{r4, pc}
 2251              	.LVL174:
ARM GAS  C:\Users\28212\AppData\Local\Temp\ccAB46Z4.s 			page 62


 2252              	.L112:
 932:ACE-ECF/Algorithm/src/fifo.c ****         return (-1);
 2253              		.loc 1 932 9 is_stmt 1 view .LVU752
 932:ACE-ECF/Algorithm/src/fifo.c ****         return (-1);
 2254              		.loc 1 932 9 view .LVU753
 2255              	.LBB108:
 2256              	.LBI108:
 129:Drivers/CMSIS/Include/cmsis_gcc.h **** {
 2257              		.loc 2 129 27 view .LVU754
 2258              	.LBB109:
 131:Drivers/CMSIS/Include/cmsis_gcc.h **** }
 2259              		.loc 2 131 3 view .LVU755
 2260              		.syntax unified
 2261              	@ 131 "Drivers/CMSIS/Include/cmsis_gcc.h" 1
 2262 003e 62B6     		cpsie i
 2263              	@ 0 "" 2
 2264              		.thumb
 2265              		.syntax unified
 2266              	.LBE109:
 2267              	.LBE108:
 932:ACE-ECF/Algorithm/src/fifo.c ****         return (-1);
 2268              		.loc 1 932 9 view .LVU756
 933:ACE-ECF/Algorithm/src/fifo.c ****     }
 2269              		.loc 1 933 9 view .LVU757
 933:ACE-ECF/Algorithm/src/fifo.c ****     }
 2270              		.loc 1 933 16 is_stmt 0 view .LVU758
 2271 0040 4FF0FF30 		mov	r0, #-1
 2272              	.LVL175:
 933:ACE-ECF/Algorithm/src/fifo.c ****     }
 2273              		.loc 1 933 16 view .LVU759
 2274 0044 FAE7     		b	.L106
 2275              	.LVL176:
 2276              	.L110:
 923:ACE-ECF/Algorithm/src/fifo.c ****     }
 2277              		.loc 1 923 16 view .LVU760
 2278 0046 4FF0FF30 		mov	r0, #-1
 2279              	.LVL177:
 923:ACE-ECF/Algorithm/src/fifo.c ****     }
 2280              		.loc 1 923 16 view .LVU761
 2281 004a F7E7     		b	.L106
 2282              		.cfi_endproc
 2283              	.LFE181:
 2285              		.section	.text.fifo_get_noprotect,"ax",%progbits
 2286              		.align	1
 2287              		.global	fifo_get_noprotect
 2288              		.syntax unified
 2289              		.thumb
 2290              		.thumb_func
 2292              	fifo_get_noprotect:
 2293              	.LVL178:
 2294              	.LFB182:
 948:ACE-ECF/Algorithm/src/fifo.c **** 
 949:ACE-ECF/Algorithm/src/fifo.c **** //******************************************************************************************
 950:ACE-ECF/Algorithm/src/fifo.c **** //
 951:ACE-ECF/Algorithm/src/fifo.c **** //! \brief  Get an element from FIFO.
 952:ACE-ECF/Algorithm/src/fifo.c **** //!
 953:ACE-ECF/Algorithm/src/fifo.c **** //! \param  [in]  pFIFO is the pointer of valid FIFO.
ARM GAS  C:\Users\28212\AppData\Local\Temp\ccAB46Z4.s 			page 63


 954:ACE-ECF/Algorithm/src/fifo.c **** //! \param  [out] pElement is the address of element you want to get
 955:ACE-ECF/Algorithm/src/fifo.c **** //!
 956:ACE-ECF/Algorithm/src/fifo.c **** //! \retval 0 if operate successfully, otherwise return -1.
 957:ACE-ECF/Algorithm/src/fifo.c **** //
 958:ACE-ECF/Algorithm/src/fifo.c **** //******************************************************************************************
 959:ACE-ECF/Algorithm/src/fifo.c **** int fifo_get_noprotect(fifo_t *p_fifo, void *p_element)
 960:ACE-ECF/Algorithm/src/fifo.c **** {
 2295              		.loc 1 960 1 is_stmt 1 view -0
 2296              		.cfi_startproc
 2297              		@ args = 0, pretend = 0, frame = 0
 2298              		@ frame_needed = 0, uses_anonymous_args = 0
 2299              		.loc 1 960 1 is_stmt 0 view .LVU763
 2300 0000 10B5     		push	{r4, lr}
 2301              	.LCFI16:
 2302              		.cfi_def_cfa_offset 8
 2303              		.cfi_offset 4, -8
 2304              		.cfi_offset 14, -4
 2305 0002 0446     		mov	r4, r0
 961:ACE-ECF/Algorithm/src/fifo.c ****     //! Check input parameters.
 962:ACE-ECF/Algorithm/src/fifo.c ****     ASSERT(p_fifo);
 2306              		.loc 1 962 19 is_stmt 1 view .LVU764
 963:ACE-ECF/Algorithm/src/fifo.c ****     ASSERT(p_element);
 2307              		.loc 1 963 22 view .LVU765
 964:ACE-ECF/Algorithm/src/fifo.c **** 
 965:ACE-ECF/Algorithm/src/fifo.c ****     // Empty ?
 966:ACE-ECF/Algorithm/src/fifo.c ****     if (0 == p_fifo->used_num)
 2308              		.loc 1 966 5 view .LVU766
 2309              		.loc 1 966 20 is_stmt 0 view .LVU767
 2310 0004 C368     		ldr	r3, [r0, #12]
 2311              		.loc 1 966 8 view .LVU768
 2312 0006 B3B1     		cbz	r3, .L116
 2313 0008 0846     		mov	r0, r1
 2314              	.LVL179:
 967:ACE-ECF/Algorithm/src/fifo.c ****     {
 968:ACE-ECF/Algorithm/src/fifo.c ****         //! Error, FIFO is Empty!
 969:ACE-ECF/Algorithm/src/fifo.c ****         return (-1);
 970:ACE-ECF/Algorithm/src/fifo.c ****     }
 971:ACE-ECF/Algorithm/src/fifo.c **** 
 972:ACE-ECF/Algorithm/src/fifo.c ****     if (p_fifo->p_read_addr > p_fifo->p_end_addr)
 2315              		.loc 1 972 5 is_stmt 1 view .LVU769
 2316              		.loc 1 972 15 is_stmt 0 view .LVU770
 2317 000a 6269     		ldr	r2, [r4, #20]
 2318              		.loc 1 972 37 view .LVU771
 2319 000c 6368     		ldr	r3, [r4, #4]
 2320              		.loc 1 972 8 view .LVU772
 2321 000e 9A42     		cmp	r2, r3
 2322 0010 01D9     		bls	.L115
 973:ACE-ECF/Algorithm/src/fifo.c ****     {
 974:ACE-ECF/Algorithm/src/fifo.c ****         p_fifo->p_read_addr = p_fifo->p_start_addr;
 2323              		.loc 1 974 9 is_stmt 1 view .LVU773
 2324              		.loc 1 974 37 is_stmt 0 view .LVU774
 2325 0012 2368     		ldr	r3, [r4]
 2326              		.loc 1 974 29 view .LVU775
 2327 0014 6361     		str	r3, [r4, #20]
 2328              	.L115:
 975:ACE-ECF/Algorithm/src/fifo.c ****     }
 976:ACE-ECF/Algorithm/src/fifo.c ****     memcpy(p_element, p_fifo->p_read_addr, p_fifo->unit_size);
ARM GAS  C:\Users\28212\AppData\Local\Temp\ccAB46Z4.s 			page 64


 2329              		.loc 1 976 5 is_stmt 1 view .LVU776
 2330 0016 2269     		ldr	r2, [r4, #16]
 2331 0018 6169     		ldr	r1, [r4, #20]
 2332              	.LVL180:
 2333              		.loc 1 976 5 is_stmt 0 view .LVU777
 2334 001a FFF7FEFF 		bl	memcpy
 2335              	.LVL181:
 977:ACE-ECF/Algorithm/src/fifo.c ****     p_fifo->p_read_addr += p_fifo->unit_size;
 2336              		.loc 1 977 5 is_stmt 1 view .LVU778
 2337              		.loc 1 977 34 is_stmt 0 view .LVU779
 2338 001e 2269     		ldr	r2, [r4, #16]
 2339              		.loc 1 977 25 view .LVU780
 2340 0020 6369     		ldr	r3, [r4, #20]
 2341 0022 1344     		add	r3, r3, r2
 2342 0024 6361     		str	r3, [r4, #20]
 978:ACE-ECF/Algorithm/src/fifo.c ****     p_fifo->free_num++;
 2343              		.loc 1 978 5 is_stmt 1 view .LVU781
 2344              		.loc 1 978 11 is_stmt 0 view .LVU782
 2345 0026 A368     		ldr	r3, [r4, #8]
 2346              		.loc 1 978 21 view .LVU783
 2347 0028 0133     		adds	r3, r3, #1
 2348 002a A360     		str	r3, [r4, #8]
 979:ACE-ECF/Algorithm/src/fifo.c ****     p_fifo->used_num--;
 2349              		.loc 1 979 5 is_stmt 1 view .LVU784
 2350              		.loc 1 979 11 is_stmt 0 view .LVU785
 2351 002c E368     		ldr	r3, [r4, #12]
 2352              		.loc 1 979 21 view .LVU786
 2353 002e 013B     		subs	r3, r3, #1
 2354 0030 E360     		str	r3, [r4, #12]
 980:ACE-ECF/Algorithm/src/fifo.c **** 
 981:ACE-ECF/Algorithm/src/fifo.c ****     return (0);
 2355              		.loc 1 981 5 is_stmt 1 view .LVU787
 2356              		.loc 1 981 12 is_stmt 0 view .LVU788
 2357 0032 0020     		movs	r0, #0
 2358              	.L113:
 982:ACE-ECF/Algorithm/src/fifo.c **** }
 2359              		.loc 1 982 1 view .LVU789
 2360 0034 10BD     		pop	{r4, pc}
 2361              	.LVL182:
 2362              	.L116:
 969:ACE-ECF/Algorithm/src/fifo.c ****     }
 2363              		.loc 1 969 16 view .LVU790
 2364 0036 4FF0FF30 		mov	r0, #-1
 2365              	.LVL183:
 969:ACE-ECF/Algorithm/src/fifo.c ****     }
 2366              		.loc 1 969 16 view .LVU791
 2367 003a FBE7     		b	.L113
 2368              		.cfi_endproc
 2369              	.LFE182:
 2371              		.section	.text.fifo_pre_read,"ax",%progbits
 2372              		.align	1
 2373              		.global	fifo_pre_read
 2374              		.syntax unified
 2375              		.thumb
 2376              		.thumb_func
 2378              	fifo_pre_read:
 2379              	.LVL184:
ARM GAS  C:\Users\28212\AppData\Local\Temp\ccAB46Z4.s 			page 65


 2380              	.LFB183:
 983:ACE-ECF/Algorithm/src/fifo.c **** 
 984:ACE-ECF/Algorithm/src/fifo.c **** //******************************************************************************************
 985:ACE-ECF/Algorithm/src/fifo.c **** //
 986:ACE-ECF/Algorithm/src/fifo.c **** //! \brief  Pre-Read an element from FIFO.
 987:ACE-ECF/Algorithm/src/fifo.c **** //!
 988:ACE-ECF/Algorithm/src/fifo.c **** //! \param  [in]  pFIFO is the pointer of valid FIFO.
 989:ACE-ECF/Algorithm/src/fifo.c **** //! \param  [in]  Offset is the offset from current pointer.
 990:ACE-ECF/Algorithm/src/fifo.c **** //! \param  [out] pElement is the address of element you want to get
 991:ACE-ECF/Algorithm/src/fifo.c **** //!
 992:ACE-ECF/Algorithm/src/fifo.c **** //! \retval 0 if operate successfully, otherwise return -1.
 993:ACE-ECF/Algorithm/src/fifo.c **** //
 994:ACE-ECF/Algorithm/src/fifo.c **** //******************************************************************************************
 995:ACE-ECF/Algorithm/src/fifo.c **** int fifo_pre_read(fifo_t *p_fifo, char offset, void *p_element)
 996:ACE-ECF/Algorithm/src/fifo.c **** {
 2381              		.loc 1 996 1 is_stmt 1 view -0
 2382              		.cfi_startproc
 2383              		@ args = 0, pretend = 0, frame = 0
 2384              		@ frame_needed = 0, uses_anonymous_args = 0
 2385              		.loc 1 996 1 is_stmt 0 view .LVU793
 2386 0000 08B5     		push	{r3, lr}
 2387              	.LCFI17:
 2388              		.cfi_def_cfa_offset 8
 2389              		.cfi_offset 3, -8
 2390              		.cfi_offset 14, -4
 2391 0002 8446     		mov	ip, r0
 997:ACE-ECF/Algorithm/src/fifo.c ****     char *_pre_red_index = (void *)0;
 2392              		.loc 1 997 5 is_stmt 1 view .LVU794
 2393              	.LVL185:
 998:ACE-ECF/Algorithm/src/fifo.c **** 
 999:ACE-ECF/Algorithm/src/fifo.c ****     //! Check input parameters.
1000:ACE-ECF/Algorithm/src/fifo.c ****     ASSERT(p_fifo);
 2394              		.loc 1 1000 19 view .LVU795
1001:ACE-ECF/Algorithm/src/fifo.c ****     ASSERT(p_element);
 2395              		.loc 1 1001 22 view .LVU796
1002:ACE-ECF/Algorithm/src/fifo.c **** 
1003:ACE-ECF/Algorithm/src/fifo.c ****     // OverFlow ?
1004:ACE-ECF/Algorithm/src/fifo.c ****     if (offset >= p_fifo->used_num)
 2396              		.loc 1 1004 5 view .LVU797
 2397              		.loc 1 1004 25 is_stmt 0 view .LVU798
 2398 0004 C368     		ldr	r3, [r0, #12]
 2399              		.loc 1 1004 8 view .LVU799
 2400 0006 9942     		cmp	r1, r3
 2401 0008 14DA     		bge	.L122
 2402 000a 1046     		mov	r0, r2
 2403              	.LVL186:
1005:ACE-ECF/Algorithm/src/fifo.c ****     {
1006:ACE-ECF/Algorithm/src/fifo.c ****         return (-1);
1007:ACE-ECF/Algorithm/src/fifo.c ****     }
1008:ACE-ECF/Algorithm/src/fifo.c **** 
1009:ACE-ECF/Algorithm/src/fifo.c ****     // Move Read Pointer to right position
1010:ACE-ECF/Algorithm/src/fifo.c ****     _pre_red_index = p_fifo->p_read_addr + p_fifo->unit_size * offset;
 2404              		.loc 1 1010 5 is_stmt 1 view .LVU800
 2405              		.loc 1 1010 28 is_stmt 0 view .LVU801
 2406 000c DCF81430 		ldr	r3, [ip, #20]
 2407              		.loc 1 1010 50 view .LVU802
 2408 0010 DCF81020 		ldr	r2, [ip, #16]
ARM GAS  C:\Users\28212\AppData\Local\Temp\ccAB46Z4.s 			page 66


 2409              	.LVL187:
 2410              		.loc 1 1010 20 view .LVU803
 2411 0014 02FB0131 		mla	r1, r2, r1, r3
 2412              	.LVL188:
1011:ACE-ECF/Algorithm/src/fifo.c ****     while (_pre_red_index > p_fifo->p_end_addr)
 2413              		.loc 1 1011 5 is_stmt 1 view .LVU804
 2414              		.loc 1 1011 11 is_stmt 0 view .LVU805
 2415 0018 04E0     		b	.L120
 2416              	.L121:
1012:ACE-ECF/Algorithm/src/fifo.c ****     {
1013:ACE-ECF/Algorithm/src/fifo.c ****         _pre_red_index = _pre_red_index - p_fifo->p_end_addr + p_fifo->p_start_addr - 1;
 2417              		.loc 1 1013 9 is_stmt 1 view .LVU806
 2418              		.loc 1 1013 41 is_stmt 0 view .LVU807
 2419 001a C91A     		subs	r1, r1, r3
 2420              	.LVL189:
 2421              		.loc 1 1013 85 view .LVU808
 2422 001c 0139     		subs	r1, r1, #1
 2423              		.loc 1 1013 24 view .LVU809
 2424 001e DCF80030 		ldr	r3, [ip]
 2425 0022 1944     		add	r1, r1, r3
 2426              	.LVL190:
 2427              	.L120:
1011:ACE-ECF/Algorithm/src/fifo.c ****     while (_pre_red_index > p_fifo->p_end_addr)
 2428              		.loc 1 1011 11 is_stmt 1 view .LVU810
1011:ACE-ECF/Algorithm/src/fifo.c ****     while (_pre_red_index > p_fifo->p_end_addr)
 2429              		.loc 1 1011 35 is_stmt 0 view .LVU811
 2430 0024 DCF80430 		ldr	r3, [ip, #4]
1011:ACE-ECF/Algorithm/src/fifo.c ****     while (_pre_red_index > p_fifo->p_end_addr)
 2431              		.loc 1 1011 11 view .LVU812
 2432 0028 8B42     		cmp	r3, r1
 2433 002a F6D3     		bcc	.L121
1014:ACE-ECF/Algorithm/src/fifo.c ****     }
1015:ACE-ECF/Algorithm/src/fifo.c ****     //! Copy Data
1016:ACE-ECF/Algorithm/src/fifo.c ****     memcpy(p_element, _pre_red_index, p_fifo->unit_size);
 2434              		.loc 1 1016 5 is_stmt 1 view .LVU813
 2435 002c FFF7FEFF 		bl	memcpy
 2436              	.LVL191:
1017:ACE-ECF/Algorithm/src/fifo.c **** 
1018:ACE-ECF/Algorithm/src/fifo.c ****     return (0);
 2437              		.loc 1 1018 5 view .LVU814
 2438              		.loc 1 1018 12 is_stmt 0 view .LVU815
 2439 0030 0020     		movs	r0, #0
 2440              	.L118:
1019:ACE-ECF/Algorithm/src/fifo.c **** }
 2441              		.loc 1 1019 1 view .LVU816
 2442 0032 08BD     		pop	{r3, pc}
 2443              	.LVL192:
 2444              	.L122:
1006:ACE-ECF/Algorithm/src/fifo.c ****     }
 2445              		.loc 1 1006 16 view .LVU817
 2446 0034 4FF0FF30 		mov	r0, #-1
 2447              	.LVL193:
1006:ACE-ECF/Algorithm/src/fifo.c ****     }
 2448              		.loc 1 1006 16 view .LVU818
 2449 0038 FBE7     		b	.L118
 2450              		.cfi_endproc
 2451              	.LFE183:
ARM GAS  C:\Users\28212\AppData\Local\Temp\ccAB46Z4.s 			page 67


 2453              		.section	.text.fifo_is_empty,"ax",%progbits
 2454              		.align	1
 2455              		.global	fifo_is_empty
 2456              		.syntax unified
 2457              		.thumb
 2458              		.thumb_func
 2460              	fifo_is_empty:
 2461              	.LVL194:
 2462              	.LFB184:
1020:ACE-ECF/Algorithm/src/fifo.c **** 
1021:ACE-ECF/Algorithm/src/fifo.c **** //******************************************************************************************
1022:ACE-ECF/Algorithm/src/fifo.c **** //
1023:ACE-ECF/Algorithm/src/fifo.c **** //! \brief  FIFO is empty ?
1024:ACE-ECF/Algorithm/src/fifo.c **** //!
1025:ACE-ECF/Algorithm/src/fifo.c **** //! \param  [in] pFIFO is the pointer of valid FIFO.
1026:ACE-ECF/Algorithm/src/fifo.c **** //!
1027:ACE-ECF/Algorithm/src/fifo.c **** //! \retval - None-zero(true) if empty.
1028:ACE-ECF/Algorithm/src/fifo.c **** //!         - Zero(false) if not empty.
1029:ACE-ECF/Algorithm/src/fifo.c **** //
1030:ACE-ECF/Algorithm/src/fifo.c **** //******************************************************************************************
1031:ACE-ECF/Algorithm/src/fifo.c **** int fifo_is_empty(fifo_t *p_fifo)
1032:ACE-ECF/Algorithm/src/fifo.c **** {
 2463              		.loc 1 1032 1 is_stmt 1 view -0
 2464              		.cfi_startproc
 2465              		@ args = 0, pretend = 0, frame = 0
 2466              		@ frame_needed = 0, uses_anonymous_args = 0
 2467              		@ link register save eliminated.
1033:ACE-ECF/Algorithm/src/fifo.c ****     //! Check input parameter.
1034:ACE-ECF/Algorithm/src/fifo.c ****     ASSERT(p_fifo);
 2468              		.loc 1 1034 19 view .LVU820
1035:ACE-ECF/Algorithm/src/fifo.c **** 
1036:ACE-ECF/Algorithm/src/fifo.c ****     return (0 == p_fifo->used_num);
 2469              		.loc 1 1036 5 view .LVU821
 2470              		.loc 1 1036 24 is_stmt 0 view .LVU822
 2471 0000 C068     		ldr	r0, [r0, #12]
 2472              	.LVL195:
1037:ACE-ECF/Algorithm/src/fifo.c **** }
 2473              		.loc 1 1037 1 view .LVU823
 2474 0002 B0FA80F0 		clz	r0, r0
 2475 0006 4009     		lsrs	r0, r0, #5
 2476 0008 7047     		bx	lr
 2477              		.cfi_endproc
 2478              	.LFE184:
 2480              		.section	.text.fifo_is_full,"ax",%progbits
 2481              		.align	1
 2482              		.global	fifo_is_full
 2483              		.syntax unified
 2484              		.thumb
 2485              		.thumb_func
 2487              	fifo_is_full:
 2488              	.LVL196:
 2489              	.LFB185:
1038:ACE-ECF/Algorithm/src/fifo.c **** 
1039:ACE-ECF/Algorithm/src/fifo.c **** //******************************************************************************************
1040:ACE-ECF/Algorithm/src/fifo.c **** //
1041:ACE-ECF/Algorithm/src/fifo.c **** //! \brief  FIFO is full ?
1042:ACE-ECF/Algorithm/src/fifo.c **** //!
ARM GAS  C:\Users\28212\AppData\Local\Temp\ccAB46Z4.s 			page 68


1043:ACE-ECF/Algorithm/src/fifo.c **** //! \param  [in] pFIFO is the pointer of valid FIFO.
1044:ACE-ECF/Algorithm/src/fifo.c **** //!
1045:ACE-ECF/Algorithm/src/fifo.c **** //! \retval - None-zero(true) if full.
1046:ACE-ECF/Algorithm/src/fifo.c **** //!         - Zero(false) if not full.
1047:ACE-ECF/Algorithm/src/fifo.c **** //
1048:ACE-ECF/Algorithm/src/fifo.c **** //******************************************************************************************
1049:ACE-ECF/Algorithm/src/fifo.c **** int fifo_is_full(fifo_t *p_fifo)
1050:ACE-ECF/Algorithm/src/fifo.c **** {
 2490              		.loc 1 1050 1 is_stmt 1 view -0
 2491              		.cfi_startproc
 2492              		@ args = 0, pretend = 0, frame = 0
 2493              		@ frame_needed = 0, uses_anonymous_args = 0
 2494              		@ link register save eliminated.
1051:ACE-ECF/Algorithm/src/fifo.c ****     //! Check input parameter.
1052:ACE-ECF/Algorithm/src/fifo.c ****     ASSERT(p_fifo);
 2495              		.loc 1 1052 19 view .LVU825
1053:ACE-ECF/Algorithm/src/fifo.c **** 
1054:ACE-ECF/Algorithm/src/fifo.c ****     return (0 == p_fifo->free_num);
 2496              		.loc 1 1054 5 view .LVU826
 2497              		.loc 1 1054 24 is_stmt 0 view .LVU827
 2498 0000 8068     		ldr	r0, [r0, #8]
 2499              	.LVL197:
1055:ACE-ECF/Algorithm/src/fifo.c **** }
 2500              		.loc 1 1055 1 view .LVU828
 2501 0002 B0FA80F0 		clz	r0, r0
 2502 0006 4009     		lsrs	r0, r0, #5
 2503 0008 7047     		bx	lr
 2504              		.cfi_endproc
 2505              	.LFE185:
 2507              		.section	.text.fifo_used,"ax",%progbits
 2508              		.align	1
 2509              		.global	fifo_used
 2510              		.syntax unified
 2511              		.thumb
 2512              		.thumb_func
 2514              	fifo_used:
 2515              	.LVL198:
 2516              	.LFB186:
1056:ACE-ECF/Algorithm/src/fifo.c **** 
1057:ACE-ECF/Algorithm/src/fifo.c **** //******************************************************************************************
1058:ACE-ECF/Algorithm/src/fifo.c **** //
1059:ACE-ECF/Algorithm/src/fifo.c **** //! \brief  Get FIFO the number of elements?
1060:ACE-ECF/Algorithm/src/fifo.c **** //!
1061:ACE-ECF/Algorithm/src/fifo.c **** //! \param  [in] pFIFO is the pointer of valid FIFO.
1062:ACE-ECF/Algorithm/src/fifo.c **** //!
1063:ACE-ECF/Algorithm/src/fifo.c **** //! \retval The number of elements in FIFO.
1064:ACE-ECF/Algorithm/src/fifo.c **** //
1065:ACE-ECF/Algorithm/src/fifo.c **** //******************************************************************************************
1066:ACE-ECF/Algorithm/src/fifo.c **** int fifo_used(fifo_t *p_fifo)
1067:ACE-ECF/Algorithm/src/fifo.c **** {
 2517              		.loc 1 1067 1 is_stmt 1 view -0
 2518              		.cfi_startproc
 2519              		@ args = 0, pretend = 0, frame = 0
 2520              		@ frame_needed = 0, uses_anonymous_args = 0
 2521              		@ link register save eliminated.
1068:ACE-ECF/Algorithm/src/fifo.c ****     //! Check input parameter.
1069:ACE-ECF/Algorithm/src/fifo.c ****     ASSERT(p_fifo);
ARM GAS  C:\Users\28212\AppData\Local\Temp\ccAB46Z4.s 			page 69


 2522              		.loc 1 1069 19 view .LVU830
1070:ACE-ECF/Algorithm/src/fifo.c **** 
1071:ACE-ECF/Algorithm/src/fifo.c ****     return (p_fifo->used_num);
 2523              		.loc 1 1071 5 view .LVU831
1072:ACE-ECF/Algorithm/src/fifo.c **** }
 2524              		.loc 1 1072 1 is_stmt 0 view .LVU832
 2525 0000 C068     		ldr	r0, [r0, #12]
 2526              	.LVL199:
 2527              		.loc 1 1072 1 view .LVU833
 2528 0002 7047     		bx	lr
 2529              		.cfi_endproc
 2530              	.LFE186:
 2532              		.section	.text.fifo_free,"ax",%progbits
 2533              		.align	1
 2534              		.global	fifo_free
 2535              		.syntax unified
 2536              		.thumb
 2537              		.thumb_func
 2539              	fifo_free:
 2540              	.LVL200:
 2541              	.LFB187:
1073:ACE-ECF/Algorithm/src/fifo.c **** 
1074:ACE-ECF/Algorithm/src/fifo.c **** //******************************************************************************************
1075:ACE-ECF/Algorithm/src/fifo.c **** //
1076:ACE-ECF/Algorithm/src/fifo.c **** //! \brief  Get FIFO the number of elements?
1077:ACE-ECF/Algorithm/src/fifo.c **** //!
1078:ACE-ECF/Algorithm/src/fifo.c **** //! \param  [in] pFIFO is the pointer of valid FIFO.
1079:ACE-ECF/Algorithm/src/fifo.c **** //!
1080:ACE-ECF/Algorithm/src/fifo.c **** //! \retval The number of elements in FIFO.
1081:ACE-ECF/Algorithm/src/fifo.c **** //
1082:ACE-ECF/Algorithm/src/fifo.c **** //******************************************************************************************
1083:ACE-ECF/Algorithm/src/fifo.c **** int fifo_free(fifo_t *p_fifo)
1084:ACE-ECF/Algorithm/src/fifo.c **** {
 2542              		.loc 1 1084 1 is_stmt 1 view -0
 2543              		.cfi_startproc
 2544              		@ args = 0, pretend = 0, frame = 0
 2545              		@ frame_needed = 0, uses_anonymous_args = 0
 2546              		@ link register save eliminated.
1085:ACE-ECF/Algorithm/src/fifo.c ****     //! Check input parameter.
1086:ACE-ECF/Algorithm/src/fifo.c ****     ASSERT(p_fifo);
 2547              		.loc 1 1086 19 view .LVU835
1087:ACE-ECF/Algorithm/src/fifo.c **** 
1088:ACE-ECF/Algorithm/src/fifo.c ****     return (p_fifo->free_num);
 2548              		.loc 1 1088 5 view .LVU836
1089:ACE-ECF/Algorithm/src/fifo.c **** }
 2549              		.loc 1 1089 1 is_stmt 0 view .LVU837
 2550 0000 8068     		ldr	r0, [r0, #8]
 2551              	.LVL201:
 2552              		.loc 1 1089 1 view .LVU838
 2553 0002 7047     		bx	lr
 2554              		.cfi_endproc
 2555              	.LFE187:
 2557              		.section	.text.fifo_flush,"ax",%progbits
 2558              		.align	1
 2559              		.global	fifo_flush
 2560              		.syntax unified
 2561              		.thumb
ARM GAS  C:\Users\28212\AppData\Local\Temp\ccAB46Z4.s 			page 70


 2562              		.thumb_func
 2564              	fifo_flush:
 2565              	.LVL202:
 2566              	.LFB188:
1090:ACE-ECF/Algorithm/src/fifo.c **** 
1091:ACE-ECF/Algorithm/src/fifo.c **** //******************************************************************************************
1092:ACE-ECF/Algorithm/src/fifo.c **** //
1093:ACE-ECF/Algorithm/src/fifo.c **** //! \brief  Flush the content of FIFO.
1094:ACE-ECF/Algorithm/src/fifo.c **** //!
1095:ACE-ECF/Algorithm/src/fifo.c **** //! \param  [in] pFIFO is the pointer of valid FIFO.
1096:ACE-ECF/Algorithm/src/fifo.c **** //!
1097:ACE-ECF/Algorithm/src/fifo.c **** //! \retval 0 if success, -1 if failure.
1098:ACE-ECF/Algorithm/src/fifo.c **** //
1099:ACE-ECF/Algorithm/src/fifo.c **** //******************************************************************************************
1100:ACE-ECF/Algorithm/src/fifo.c **** int fifo_flush(fifo_t *p_fifo)
1101:ACE-ECF/Algorithm/src/fifo.c **** {
 2567              		.loc 1 1101 1 is_stmt 1 view -0
 2568              		.cfi_startproc
 2569              		@ args = 0, pretend = 0, frame = 0
 2570              		@ frame_needed = 0, uses_anonymous_args = 0
 2571              		@ link register save eliminated.
 2572              		.loc 1 1101 1 is_stmt 0 view .LVU840
 2573 0000 0346     		mov	r3, r0
1102:ACE-ECF/Algorithm/src/fifo.c ****     //! Check input parameters.
1103:ACE-ECF/Algorithm/src/fifo.c ****     ASSERT(p_fifo);
 2574              		.loc 1 1103 19 is_stmt 1 view .LVU841
1104:ACE-ECF/Algorithm/src/fifo.c **** 
1105:ACE-ECF/Algorithm/src/fifo.c ****     //! Initialize FIFO Control Block.
1106:ACE-ECF/Algorithm/src/fifo.c ****     MUTEX_LOCK(p_fifo->mutex);
 2575              		.loc 1 1106 5 view .LVU842
 2576              		.loc 1 1106 5 view .LVU843
 2577              	.LBB110:
 2578              	.LBI110:
 140:Drivers/CMSIS/Include/cmsis_gcc.h **** {
 2579              		.loc 2 140 27 view .LVU844
 2580              	.LBB111:
 2581              		.loc 2 142 3 view .LVU845
 2582              		.syntax unified
 2583              	@ 142 "Drivers/CMSIS/Include/cmsis_gcc.h" 1
 2584 0002 72B6     		cpsid i
 2585              	@ 0 "" 2
 2586              		.thumb
 2587              		.syntax unified
 2588              	.LBE111:
 2589              	.LBE110:
 2590              		.loc 1 1106 5 view .LVU846
1107:ACE-ECF/Algorithm/src/fifo.c ****     p_fifo->free_num = (p_fifo->p_end_addr - p_fifo->p_start_addr) / (p_fifo->unit_size);
 2591              		.loc 1 1107 5 view .LVU847
 2592              		.loc 1 1107 31 is_stmt 0 view .LVU848
 2593 0004 4268     		ldr	r2, [r0, #4]
 2594              		.loc 1 1107 52 view .LVU849
 2595 0006 0168     		ldr	r1, [r0]
 2596              		.loc 1 1107 44 view .LVU850
 2597 0008 521A     		subs	r2, r2, r1
 2598              		.loc 1 1107 77 view .LVU851
 2599 000a 0069     		ldr	r0, [r0, #16]
 2600              	.LVL203:
ARM GAS  C:\Users\28212\AppData\Local\Temp\ccAB46Z4.s 			page 71


 2601              		.loc 1 1107 68 view .LVU852
 2602 000c 92FBF0F2 		sdiv	r2, r2, r0
 2603              		.loc 1 1107 22 view .LVU853
 2604 0010 9A60     		str	r2, [r3, #8]
1108:ACE-ECF/Algorithm/src/fifo.c ****     p_fifo->used_num = 0;
 2605              		.loc 1 1108 5 is_stmt 1 view .LVU854
 2606              		.loc 1 1108 22 is_stmt 0 view .LVU855
 2607 0012 0020     		movs	r0, #0
 2608 0014 D860     		str	r0, [r3, #12]
1109:ACE-ECF/Algorithm/src/fifo.c ****     p_fifo->p_read_addr = p_fifo->p_start_addr;
 2609              		.loc 1 1109 5 is_stmt 1 view .LVU856
 2610              		.loc 1 1109 25 is_stmt 0 view .LVU857
 2611 0016 5961     		str	r1, [r3, #20]
1110:ACE-ECF/Algorithm/src/fifo.c ****     p_fifo->p_write_addr = p_fifo->p_start_addr;
 2612              		.loc 1 1110 5 is_stmt 1 view .LVU858
 2613              		.loc 1 1110 26 is_stmt 0 view .LVU859
 2614 0018 9961     		str	r1, [r3, #24]
1111:ACE-ECF/Algorithm/src/fifo.c ****     MUTEX_UNLOCK(p_fifo->mutex);
 2615              		.loc 1 1111 5 is_stmt 1 view .LVU860
 2616              		.loc 1 1111 5 view .LVU861
 2617              	.LBB112:
 2618              	.LBI112:
 129:Drivers/CMSIS/Include/cmsis_gcc.h **** {
 2619              		.loc 2 129 27 view .LVU862
 2620              	.LBB113:
 131:Drivers/CMSIS/Include/cmsis_gcc.h **** }
 2621              		.loc 2 131 3 view .LVU863
 2622              		.syntax unified
 2623              	@ 131 "Drivers/CMSIS/Include/cmsis_gcc.h" 1
 2624 001a 62B6     		cpsie i
 2625              	@ 0 "" 2
 2626              		.thumb
 2627              		.syntax unified
 2628              	.LBE113:
 2629              	.LBE112:
 2630              		.loc 1 1111 5 view .LVU864
1112:ACE-ECF/Algorithm/src/fifo.c **** 
1113:ACE-ECF/Algorithm/src/fifo.c ****     return (0);
 2631              		.loc 1 1113 5 view .LVU865
1114:ACE-ECF/Algorithm/src/fifo.c **** }
 2632              		.loc 1 1114 1 is_stmt 0 view .LVU866
 2633 001c 7047     		bx	lr
 2634              		.cfi_endproc
 2635              	.LFE188:
 2637              		.text
 2638              	.Letext0:
 2639              		.file 3 "ACE-ECF/Algorithm/inc/fifo.h"
 2640              		.file 4 "d:\\gcc-arm-none-eabi-10.3-2021.10\\arm-none-eabi\\include\\stdlib.h"
 2641              		.file 5 "<built-in>"
ARM GAS  C:\Users\28212\AppData\Local\Temp\ccAB46Z4.s 			page 72

