ARM GAS  C:\Users\28212\AppData\Local\Temp\ccUcRdF6.s 			page 1


   1              		.cpu cortex-m4
   2              		.arch armv7e-m
   3              		.fpu fpv4-sp-d16
   4              		.eabi_attribute 27, 1
   5              		.eabi_attribute 28, 1
   6              		.eabi_attribute 20, 1
   7              		.eabi_attribute 21, 1
   8              		.eabi_attribute 23, 3
   9              		.eabi_attribute 24, 1
  10              		.eabi_attribute 25, 1
  11              		.eabi_attribute 26, 1
  12              		.eabi_attribute 30, 1
  13              		.eabi_attribute 34, 1
  14              		.eabi_attribute 18, 4
  15              		.file	"stm32f4xx_it.c"
  16              		.text
  17              	.Ltext0:
  18              		.cfi_sections	.debug_frame
  19              		.section	.text.NMI_Handler,"ax",%progbits
  20              		.align	1
  21              		.global	NMI_Handler
  22              		.syntax unified
  23              		.thumb
  24              		.thumb_func
  26              	NMI_Handler:
  27              	.LFB130:
  28              		.file 1 "Core/Src/stm32f4xx_it.c"
   1:Core/Src/stm32f4xx_it.c **** /* USER CODE BEGIN Header */
   2:Core/Src/stm32f4xx_it.c **** /**
   3:Core/Src/stm32f4xx_it.c ****   ******************************************************************************
   4:Core/Src/stm32f4xx_it.c ****   * @file    stm32f4xx_it.c
   5:Core/Src/stm32f4xx_it.c ****   * @brief   Interrupt Service Routines.
   6:Core/Src/stm32f4xx_it.c ****   ******************************************************************************
   7:Core/Src/stm32f4xx_it.c ****   * @attention
   8:Core/Src/stm32f4xx_it.c ****   *
   9:Core/Src/stm32f4xx_it.c ****   * Copyright (c) 2024 STMicroelectronics.
  10:Core/Src/stm32f4xx_it.c ****   * All rights reserved.
  11:Core/Src/stm32f4xx_it.c ****   *
  12:Core/Src/stm32f4xx_it.c ****   * This software is licensed under terms that can be found in the LICENSE file
  13:Core/Src/stm32f4xx_it.c ****   * in the root directory of this software component.
  14:Core/Src/stm32f4xx_it.c ****   * If no LICENSE file comes with this software, it is provided AS-IS.
  15:Core/Src/stm32f4xx_it.c ****   *
  16:Core/Src/stm32f4xx_it.c ****   ******************************************************************************
  17:Core/Src/stm32f4xx_it.c ****   */
  18:Core/Src/stm32f4xx_it.c **** /* USER CODE END Header */
  19:Core/Src/stm32f4xx_it.c **** 
  20:Core/Src/stm32f4xx_it.c **** /* Includes ------------------------------------------------------------------*/
  21:Core/Src/stm32f4xx_it.c **** #include "main.h"
  22:Core/Src/stm32f4xx_it.c **** #include "stm32f4xx_it.h"
  23:Core/Src/stm32f4xx_it.c **** /* Private includes ----------------------------------------------------------*/
  24:Core/Src/stm32f4xx_it.c **** /* USER CODE BEGIN Includes */
  25:Core/Src/stm32f4xx_it.c **** /* USER CODE END Includes */
  26:Core/Src/stm32f4xx_it.c **** 
  27:Core/Src/stm32f4xx_it.c **** /* Private typedef -----------------------------------------------------------*/
  28:Core/Src/stm32f4xx_it.c **** /* USER CODE BEGIN TD */
  29:Core/Src/stm32f4xx_it.c **** 
  30:Core/Src/stm32f4xx_it.c **** /* USER CODE END TD */
ARM GAS  C:\Users\28212\AppData\Local\Temp\ccUcRdF6.s 			page 2


  31:Core/Src/stm32f4xx_it.c **** 
  32:Core/Src/stm32f4xx_it.c **** /* Private define ------------------------------------------------------------*/
  33:Core/Src/stm32f4xx_it.c **** /* USER CODE BEGIN PD */
  34:Core/Src/stm32f4xx_it.c **** 
  35:Core/Src/stm32f4xx_it.c **** /* USER CODE END PD */
  36:Core/Src/stm32f4xx_it.c **** 
  37:Core/Src/stm32f4xx_it.c **** /* Private macro -------------------------------------------------------------*/
  38:Core/Src/stm32f4xx_it.c **** /* USER CODE BEGIN PM */
  39:Core/Src/stm32f4xx_it.c **** 
  40:Core/Src/stm32f4xx_it.c **** /* USER CODE END PM */
  41:Core/Src/stm32f4xx_it.c **** 
  42:Core/Src/stm32f4xx_it.c **** /* Private variables ---------------------------------------------------------*/
  43:Core/Src/stm32f4xx_it.c **** /* USER CODE BEGIN PV */
  44:Core/Src/stm32f4xx_it.c **** 
  45:Core/Src/stm32f4xx_it.c **** /* USER CODE END PV */
  46:Core/Src/stm32f4xx_it.c **** 
  47:Core/Src/stm32f4xx_it.c **** /* Private function prototypes -----------------------------------------------*/
  48:Core/Src/stm32f4xx_it.c **** /* USER CODE BEGIN PFP */
  49:Core/Src/stm32f4xx_it.c **** 
  50:Core/Src/stm32f4xx_it.c **** /* USER CODE END PFP */
  51:Core/Src/stm32f4xx_it.c **** 
  52:Core/Src/stm32f4xx_it.c **** /* Private user code ---------------------------------------------------------*/
  53:Core/Src/stm32f4xx_it.c **** /* USER CODE BEGIN 0 */
  54:Core/Src/stm32f4xx_it.c **** 
  55:Core/Src/stm32f4xx_it.c **** /* USER CODE END 0 */
  56:Core/Src/stm32f4xx_it.c **** 
  57:Core/Src/stm32f4xx_it.c **** /* External variables --------------------------------------------------------*/
  58:Core/Src/stm32f4xx_it.c **** extern PCD_HandleTypeDef hpcd_USB_OTG_FS;
  59:Core/Src/stm32f4xx_it.c **** extern CAN_HandleTypeDef hcan1;
  60:Core/Src/stm32f4xx_it.c **** extern CAN_HandleTypeDef hcan2;
  61:Core/Src/stm32f4xx_it.c **** extern DMA_HandleTypeDef hdma_spi1_rx;
  62:Core/Src/stm32f4xx_it.c **** extern DMA_HandleTypeDef hdma_spi1_tx;
  63:Core/Src/stm32f4xx_it.c **** extern TIM_HandleTypeDef htim10;
  64:Core/Src/stm32f4xx_it.c **** extern DMA_HandleTypeDef hdma_usart3_rx;
  65:Core/Src/stm32f4xx_it.c **** extern DMA_HandleTypeDef hdma_usart6_rx;
  66:Core/Src/stm32f4xx_it.c **** extern DMA_HandleTypeDef hdma_usart6_tx;
  67:Core/Src/stm32f4xx_it.c **** extern UART_HandleTypeDef huart3;
  68:Core/Src/stm32f4xx_it.c **** extern UART_HandleTypeDef huart6;
  69:Core/Src/stm32f4xx_it.c **** extern TIM_HandleTypeDef htim1;
  70:Core/Src/stm32f4xx_it.c **** 
  71:Core/Src/stm32f4xx_it.c **** /* USER CODE BEGIN EV */
  72:Core/Src/stm32f4xx_it.c **** 
  73:Core/Src/stm32f4xx_it.c **** /* USER CODE END EV */
  74:Core/Src/stm32f4xx_it.c **** 
  75:Core/Src/stm32f4xx_it.c **** /******************************************************************************/
  76:Core/Src/stm32f4xx_it.c **** /*           Cortex-M4 Processor Interruption and Exception Handlers          */
  77:Core/Src/stm32f4xx_it.c **** /******************************************************************************/
  78:Core/Src/stm32f4xx_it.c **** /**
  79:Core/Src/stm32f4xx_it.c ****   * @brief This function handles Non maskable interrupt.
  80:Core/Src/stm32f4xx_it.c ****   */
  81:Core/Src/stm32f4xx_it.c **** void NMI_Handler(void)
  82:Core/Src/stm32f4xx_it.c **** {
  29              		.loc 1 82 1 view -0
  30              		.cfi_startproc
  31              		@ Volatile: function does not return.
  32              		@ args = 0, pretend = 0, frame = 0
  33              		@ frame_needed = 0, uses_anonymous_args = 0
ARM GAS  C:\Users\28212\AppData\Local\Temp\ccUcRdF6.s 			page 3


  34              		@ link register save eliminated.
  35              	.L2:
  83:Core/Src/stm32f4xx_it.c ****   /* USER CODE BEGIN NonMaskableInt_IRQn 0 */
  84:Core/Src/stm32f4xx_it.c **** 
  85:Core/Src/stm32f4xx_it.c ****   /* USER CODE END NonMaskableInt_IRQn 0 */
  86:Core/Src/stm32f4xx_it.c ****   /* USER CODE BEGIN NonMaskableInt_IRQn 1 */
  87:Core/Src/stm32f4xx_it.c ****   while (1)
  36              		.loc 1 87 3 discriminator 1 view .LVU1
  88:Core/Src/stm32f4xx_it.c ****   {
  89:Core/Src/stm32f4xx_it.c ****   }
  37              		.loc 1 89 3 discriminator 1 view .LVU2
  87:Core/Src/stm32f4xx_it.c ****   {
  38              		.loc 1 87 9 discriminator 1 view .LVU3
  39 0000 FEE7     		b	.L2
  40              		.cfi_endproc
  41              	.LFE130:
  43              		.section	.text.HardFault_Handler,"ax",%progbits
  44              		.align	1
  45              		.global	HardFault_Handler
  46              		.syntax unified
  47              		.thumb
  48              		.thumb_func
  50              	HardFault_Handler:
  51              	.LFB131:
  90:Core/Src/stm32f4xx_it.c ****   /* USER CODE END NonMaskableInt_IRQn 1 */
  91:Core/Src/stm32f4xx_it.c **** }
  92:Core/Src/stm32f4xx_it.c **** 
  93:Core/Src/stm32f4xx_it.c **** /**
  94:Core/Src/stm32f4xx_it.c ****   * @brief This function handles Hard fault interrupt.
  95:Core/Src/stm32f4xx_it.c ****   */
  96:Core/Src/stm32f4xx_it.c **** void HardFault_Handler(void)
  97:Core/Src/stm32f4xx_it.c **** {
  52              		.loc 1 97 1 view -0
  53              		.cfi_startproc
  54              		@ Volatile: function does not return.
  55              		@ args = 0, pretend = 0, frame = 0
  56              		@ frame_needed = 0, uses_anonymous_args = 0
  57              		@ link register save eliminated.
  58              	.L4:
  98:Core/Src/stm32f4xx_it.c ****   /* USER CODE BEGIN HardFault_IRQn 0 */
  99:Core/Src/stm32f4xx_it.c **** 
 100:Core/Src/stm32f4xx_it.c ****   /* USER CODE END HardFault_IRQn 0 */
 101:Core/Src/stm32f4xx_it.c ****   while (1)
  59              		.loc 1 101 3 discriminator 1 view .LVU5
 102:Core/Src/stm32f4xx_it.c ****   {
 103:Core/Src/stm32f4xx_it.c ****     /* USER CODE BEGIN W1_HardFault_IRQn 0 */
 104:Core/Src/stm32f4xx_it.c ****     /* USER CODE END W1_HardFault_IRQn 0 */
 105:Core/Src/stm32f4xx_it.c ****   }
  60              		.loc 1 105 3 discriminator 1 view .LVU6
 101:Core/Src/stm32f4xx_it.c ****   {
  61              		.loc 1 101 9 discriminator 1 view .LVU7
  62 0000 FEE7     		b	.L4
  63              		.cfi_endproc
  64              	.LFE131:
  66              		.section	.text.MemManage_Handler,"ax",%progbits
  67              		.align	1
  68              		.global	MemManage_Handler
ARM GAS  C:\Users\28212\AppData\Local\Temp\ccUcRdF6.s 			page 4


  69              		.syntax unified
  70              		.thumb
  71              		.thumb_func
  73              	MemManage_Handler:
  74              	.LFB132:
 106:Core/Src/stm32f4xx_it.c **** }
 107:Core/Src/stm32f4xx_it.c **** 
 108:Core/Src/stm32f4xx_it.c **** /**
 109:Core/Src/stm32f4xx_it.c ****   * @brief This function handles Memory management fault.
 110:Core/Src/stm32f4xx_it.c ****   */
 111:Core/Src/stm32f4xx_it.c **** void MemManage_Handler(void)
 112:Core/Src/stm32f4xx_it.c **** {
  75              		.loc 1 112 1 view -0
  76              		.cfi_startproc
  77              		@ Volatile: function does not return.
  78              		@ args = 0, pretend = 0, frame = 0
  79              		@ frame_needed = 0, uses_anonymous_args = 0
  80              		@ link register save eliminated.
  81              	.L6:
 113:Core/Src/stm32f4xx_it.c ****   /* USER CODE BEGIN MemoryManagement_IRQn 0 */
 114:Core/Src/stm32f4xx_it.c **** 
 115:Core/Src/stm32f4xx_it.c ****   /* USER CODE END MemoryManagement_IRQn 0 */
 116:Core/Src/stm32f4xx_it.c ****   while (1)
  82              		.loc 1 116 3 discriminator 1 view .LVU9
 117:Core/Src/stm32f4xx_it.c ****   {
 118:Core/Src/stm32f4xx_it.c ****     /* USER CODE BEGIN W1_MemoryManagement_IRQn 0 */
 119:Core/Src/stm32f4xx_it.c ****     /* USER CODE END W1_MemoryManagement_IRQn 0 */
 120:Core/Src/stm32f4xx_it.c ****   }
  83              		.loc 1 120 3 discriminator 1 view .LVU10
 116:Core/Src/stm32f4xx_it.c ****   {
  84              		.loc 1 116 9 discriminator 1 view .LVU11
  85 0000 FEE7     		b	.L6
  86              		.cfi_endproc
  87              	.LFE132:
  89              		.section	.text.BusFault_Handler,"ax",%progbits
  90              		.align	1
  91              		.global	BusFault_Handler
  92              		.syntax unified
  93              		.thumb
  94              		.thumb_func
  96              	BusFault_Handler:
  97              	.LFB133:
 121:Core/Src/stm32f4xx_it.c **** }
 122:Core/Src/stm32f4xx_it.c **** 
 123:Core/Src/stm32f4xx_it.c **** /**
 124:Core/Src/stm32f4xx_it.c ****   * @brief This function handles Pre-fetch fault, memory access fault.
 125:Core/Src/stm32f4xx_it.c ****   */
 126:Core/Src/stm32f4xx_it.c **** void BusFault_Handler(void)
 127:Core/Src/stm32f4xx_it.c **** {
  98              		.loc 1 127 1 view -0
  99              		.cfi_startproc
 100              		@ Volatile: function does not return.
 101              		@ args = 0, pretend = 0, frame = 0
 102              		@ frame_needed = 0, uses_anonymous_args = 0
 103              		@ link register save eliminated.
 104              	.L8:
 128:Core/Src/stm32f4xx_it.c ****   /* USER CODE BEGIN BusFault_IRQn 0 */
ARM GAS  C:\Users\28212\AppData\Local\Temp\ccUcRdF6.s 			page 5


 129:Core/Src/stm32f4xx_it.c **** 
 130:Core/Src/stm32f4xx_it.c ****   /* USER CODE END BusFault_IRQn 0 */
 131:Core/Src/stm32f4xx_it.c ****   while (1)
 105              		.loc 1 131 3 discriminator 1 view .LVU13
 132:Core/Src/stm32f4xx_it.c ****   {
 133:Core/Src/stm32f4xx_it.c ****     /* USER CODE BEGIN W1_BusFault_IRQn 0 */
 134:Core/Src/stm32f4xx_it.c ****     /* USER CODE END W1_BusFault_IRQn 0 */
 135:Core/Src/stm32f4xx_it.c ****   }
 106              		.loc 1 135 3 discriminator 1 view .LVU14
 131:Core/Src/stm32f4xx_it.c ****   {
 107              		.loc 1 131 9 discriminator 1 view .LVU15
 108 0000 FEE7     		b	.L8
 109              		.cfi_endproc
 110              	.LFE133:
 112              		.section	.text.UsageFault_Handler,"ax",%progbits
 113              		.align	1
 114              		.global	UsageFault_Handler
 115              		.syntax unified
 116              		.thumb
 117              		.thumb_func
 119              	UsageFault_Handler:
 120              	.LFB134:
 136:Core/Src/stm32f4xx_it.c **** }
 137:Core/Src/stm32f4xx_it.c **** 
 138:Core/Src/stm32f4xx_it.c **** /**
 139:Core/Src/stm32f4xx_it.c ****   * @brief This function handles Undefined instruction or illegal state.
 140:Core/Src/stm32f4xx_it.c ****   */
 141:Core/Src/stm32f4xx_it.c **** void UsageFault_Handler(void)
 142:Core/Src/stm32f4xx_it.c **** {
 121              		.loc 1 142 1 view -0
 122              		.cfi_startproc
 123              		@ Volatile: function does not return.
 124              		@ args = 0, pretend = 0, frame = 0
 125              		@ frame_needed = 0, uses_anonymous_args = 0
 126              		@ link register save eliminated.
 127              	.L10:
 143:Core/Src/stm32f4xx_it.c ****   /* USER CODE BEGIN UsageFault_IRQn 0 */
 144:Core/Src/stm32f4xx_it.c **** 
 145:Core/Src/stm32f4xx_it.c ****   /* USER CODE END UsageFault_IRQn 0 */
 146:Core/Src/stm32f4xx_it.c ****   while (1)
 128              		.loc 1 146 3 discriminator 1 view .LVU17
 147:Core/Src/stm32f4xx_it.c ****   {
 148:Core/Src/stm32f4xx_it.c ****     /* USER CODE BEGIN W1_UsageFault_IRQn 0 */
 149:Core/Src/stm32f4xx_it.c ****     /* USER CODE END W1_UsageFault_IRQn 0 */
 150:Core/Src/stm32f4xx_it.c ****   }
 129              		.loc 1 150 3 discriminator 1 view .LVU18
 146:Core/Src/stm32f4xx_it.c ****   {
 130              		.loc 1 146 9 discriminator 1 view .LVU19
 131 0000 FEE7     		b	.L10
 132              		.cfi_endproc
 133              	.LFE134:
 135              		.section	.text.DebugMon_Handler,"ax",%progbits
 136              		.align	1
 137              		.global	DebugMon_Handler
 138              		.syntax unified
 139              		.thumb
 140              		.thumb_func
ARM GAS  C:\Users\28212\AppData\Local\Temp\ccUcRdF6.s 			page 6


 142              	DebugMon_Handler:
 143              	.LFB135:
 151:Core/Src/stm32f4xx_it.c **** }
 152:Core/Src/stm32f4xx_it.c **** 
 153:Core/Src/stm32f4xx_it.c **** /**
 154:Core/Src/stm32f4xx_it.c ****   * @brief This function handles Debug monitor.
 155:Core/Src/stm32f4xx_it.c ****   */
 156:Core/Src/stm32f4xx_it.c **** void DebugMon_Handler(void)
 157:Core/Src/stm32f4xx_it.c **** {
 144              		.loc 1 157 1 view -0
 145              		.cfi_startproc
 146              		@ args = 0, pretend = 0, frame = 0
 147              		@ frame_needed = 0, uses_anonymous_args = 0
 148              		@ link register save eliminated.
 158:Core/Src/stm32f4xx_it.c ****   /* USER CODE BEGIN DebugMonitor_IRQn 0 */
 159:Core/Src/stm32f4xx_it.c **** 
 160:Core/Src/stm32f4xx_it.c ****   /* USER CODE END DebugMonitor_IRQn 0 */
 161:Core/Src/stm32f4xx_it.c ****   /* USER CODE BEGIN DebugMonitor_IRQn 1 */
 162:Core/Src/stm32f4xx_it.c **** 
 163:Core/Src/stm32f4xx_it.c ****   /* USER CODE END DebugMonitor_IRQn 1 */
 164:Core/Src/stm32f4xx_it.c **** }
 149              		.loc 1 164 1 view .LVU21
 150 0000 7047     		bx	lr
 151              		.cfi_endproc
 152              	.LFE135:
 154              		.section	.text.EXTI4_IRQHandler,"ax",%progbits
 155              		.align	1
 156              		.global	EXTI4_IRQHandler
 157              		.syntax unified
 158              		.thumb
 159              		.thumb_func
 161              	EXTI4_IRQHandler:
 162              	.LFB136:
 165:Core/Src/stm32f4xx_it.c **** 
 166:Core/Src/stm32f4xx_it.c **** /******************************************************************************/
 167:Core/Src/stm32f4xx_it.c **** /* STM32F4xx Peripheral Interrupt Handlers                                    */
 168:Core/Src/stm32f4xx_it.c **** /* Add here the Interrupt Handlers for the used peripherals.                  */
 169:Core/Src/stm32f4xx_it.c **** /* For the available peripheral interrupt handler names,                      */
 170:Core/Src/stm32f4xx_it.c **** /* please refer to the startup file (startup_stm32f4xx.s).                    */
 171:Core/Src/stm32f4xx_it.c **** /******************************************************************************/
 172:Core/Src/stm32f4xx_it.c **** 
 173:Core/Src/stm32f4xx_it.c **** /**
 174:Core/Src/stm32f4xx_it.c ****   * @brief This function handles EXTI line4 interrupt.
 175:Core/Src/stm32f4xx_it.c ****   */
 176:Core/Src/stm32f4xx_it.c **** void EXTI4_IRQHandler(void)
 177:Core/Src/stm32f4xx_it.c **** {
 163              		.loc 1 177 1 view -0
 164              		.cfi_startproc
 165              		@ args = 0, pretend = 0, frame = 0
 166              		@ frame_needed = 0, uses_anonymous_args = 0
 167 0000 08B5     		push	{r3, lr}
 168              	.LCFI0:
 169              		.cfi_def_cfa_offset 8
 170              		.cfi_offset 3, -8
 171              		.cfi_offset 14, -4
 178:Core/Src/stm32f4xx_it.c ****   /* USER CODE BEGIN EXTI4_IRQn 0 */
 179:Core/Src/stm32f4xx_it.c **** 
ARM GAS  C:\Users\28212\AppData\Local\Temp\ccUcRdF6.s 			page 7


 180:Core/Src/stm32f4xx_it.c ****   /* USER CODE END EXTI4_IRQn 0 */
 181:Core/Src/stm32f4xx_it.c ****   HAL_GPIO_EXTI_IRQHandler(INT1_ACCEL_Pin);
 172              		.loc 1 181 3 view .LVU23
 173 0002 1020     		movs	r0, #16
 174 0004 FFF7FEFF 		bl	HAL_GPIO_EXTI_IRQHandler
 175              	.LVL0:
 182:Core/Src/stm32f4xx_it.c ****   /* USER CODE BEGIN EXTI4_IRQn 1 */
 183:Core/Src/stm32f4xx_it.c **** 
 184:Core/Src/stm32f4xx_it.c ****   /* USER CODE END EXTI4_IRQn 1 */
 185:Core/Src/stm32f4xx_it.c **** }
 176              		.loc 1 185 1 is_stmt 0 view .LVU24
 177 0008 08BD     		pop	{r3, pc}
 178              		.cfi_endproc
 179              	.LFE136:
 181              		.section	.text.DMA1_Stream1_IRQHandler,"ax",%progbits
 182              		.align	1
 183              		.global	DMA1_Stream1_IRQHandler
 184              		.syntax unified
 185              		.thumb
 186              		.thumb_func
 188              	DMA1_Stream1_IRQHandler:
 189              	.LFB137:
 186:Core/Src/stm32f4xx_it.c **** 
 187:Core/Src/stm32f4xx_it.c **** /**
 188:Core/Src/stm32f4xx_it.c ****   * @brief This function handles DMA1 stream1 global interrupt.
 189:Core/Src/stm32f4xx_it.c ****   */
 190:Core/Src/stm32f4xx_it.c **** void DMA1_Stream1_IRQHandler(void)
 191:Core/Src/stm32f4xx_it.c **** {
 190              		.loc 1 191 1 is_stmt 1 view -0
 191              		.cfi_startproc
 192              		@ args = 0, pretend = 0, frame = 0
 193              		@ frame_needed = 0, uses_anonymous_args = 0
 194 0000 08B5     		push	{r3, lr}
 195              	.LCFI1:
 196              		.cfi_def_cfa_offset 8
 197              		.cfi_offset 3, -8
 198              		.cfi_offset 14, -4
 192:Core/Src/stm32f4xx_it.c ****   /* USER CODE BEGIN DMA1_Stream1_IRQn 0 */
 193:Core/Src/stm32f4xx_it.c **** 
 194:Core/Src/stm32f4xx_it.c ****   /* USER CODE END DMA1_Stream1_IRQn 0 */
 195:Core/Src/stm32f4xx_it.c ****   HAL_DMA_IRQHandler(&hdma_usart3_rx);
 199              		.loc 1 195 3 view .LVU26
 200 0002 0248     		ldr	r0, .L16
 201 0004 FFF7FEFF 		bl	HAL_DMA_IRQHandler
 202              	.LVL1:
 196:Core/Src/stm32f4xx_it.c ****   /* USER CODE BEGIN DMA1_Stream1_IRQn 1 */
 197:Core/Src/stm32f4xx_it.c **** 
 198:Core/Src/stm32f4xx_it.c ****   /* USER CODE END DMA1_Stream1_IRQn 1 */
 199:Core/Src/stm32f4xx_it.c **** }
 203              		.loc 1 199 1 is_stmt 0 view .LVU27
 204 0008 08BD     		pop	{r3, pc}
 205              	.L17:
 206 000a 00BF     		.align	2
 207              	.L16:
 208 000c 00000000 		.word	hdma_usart3_rx
 209              		.cfi_endproc
 210              	.LFE137:
ARM GAS  C:\Users\28212\AppData\Local\Temp\ccUcRdF6.s 			page 8


 212              		.section	.text.CAN1_RX0_IRQHandler,"ax",%progbits
 213              		.align	1
 214              		.global	CAN1_RX0_IRQHandler
 215              		.syntax unified
 216              		.thumb
 217              		.thumb_func
 219              	CAN1_RX0_IRQHandler:
 220              	.LFB138:
 200:Core/Src/stm32f4xx_it.c **** 
 201:Core/Src/stm32f4xx_it.c **** /**
 202:Core/Src/stm32f4xx_it.c ****   * @brief This function handles CAN1 RX0 interrupts.
 203:Core/Src/stm32f4xx_it.c ****   */
 204:Core/Src/stm32f4xx_it.c **** void CAN1_RX0_IRQHandler(void)
 205:Core/Src/stm32f4xx_it.c **** {
 221              		.loc 1 205 1 is_stmt 1 view -0
 222              		.cfi_startproc
 223              		@ args = 0, pretend = 0, frame = 0
 224              		@ frame_needed = 0, uses_anonymous_args = 0
 225 0000 08B5     		push	{r3, lr}
 226              	.LCFI2:
 227              		.cfi_def_cfa_offset 8
 228              		.cfi_offset 3, -8
 229              		.cfi_offset 14, -4
 206:Core/Src/stm32f4xx_it.c ****   /* USER CODE BEGIN CAN1_RX0_IRQn 0 */
 207:Core/Src/stm32f4xx_it.c **** 
 208:Core/Src/stm32f4xx_it.c ****   /* USER CODE END CAN1_RX0_IRQn 0 */
 209:Core/Src/stm32f4xx_it.c ****   HAL_CAN_IRQHandler(&hcan1);
 230              		.loc 1 209 3 view .LVU29
 231 0002 0248     		ldr	r0, .L20
 232 0004 FFF7FEFF 		bl	HAL_CAN_IRQHandler
 233              	.LVL2:
 210:Core/Src/stm32f4xx_it.c ****   /* USER CODE BEGIN CAN1_RX0_IRQn 1 */
 211:Core/Src/stm32f4xx_it.c **** 
 212:Core/Src/stm32f4xx_it.c ****   /* USER CODE END CAN1_RX0_IRQn 1 */
 213:Core/Src/stm32f4xx_it.c **** }
 234              		.loc 1 213 1 is_stmt 0 view .LVU30
 235 0008 08BD     		pop	{r3, pc}
 236              	.L21:
 237 000a 00BF     		.align	2
 238              	.L20:
 239 000c 00000000 		.word	hcan1
 240              		.cfi_endproc
 241              	.LFE138:
 243              		.section	.text.EXTI9_5_IRQHandler,"ax",%progbits
 244              		.align	1
 245              		.global	EXTI9_5_IRQHandler
 246              		.syntax unified
 247              		.thumb
 248              		.thumb_func
 250              	EXTI9_5_IRQHandler:
 251              	.LFB139:
 214:Core/Src/stm32f4xx_it.c **** 
 215:Core/Src/stm32f4xx_it.c **** /**
 216:Core/Src/stm32f4xx_it.c ****   * @brief This function handles EXTI line[9:5] interrupts.
 217:Core/Src/stm32f4xx_it.c ****   */
 218:Core/Src/stm32f4xx_it.c **** void EXTI9_5_IRQHandler(void)
 219:Core/Src/stm32f4xx_it.c **** {
ARM GAS  C:\Users\28212\AppData\Local\Temp\ccUcRdF6.s 			page 9


 252              		.loc 1 219 1 is_stmt 1 view -0
 253              		.cfi_startproc
 254              		@ args = 0, pretend = 0, frame = 0
 255              		@ frame_needed = 0, uses_anonymous_args = 0
 256 0000 08B5     		push	{r3, lr}
 257              	.LCFI3:
 258              		.cfi_def_cfa_offset 8
 259              		.cfi_offset 3, -8
 260              		.cfi_offset 14, -4
 220:Core/Src/stm32f4xx_it.c ****   /* USER CODE BEGIN EXTI9_5_IRQn 0 */
 221:Core/Src/stm32f4xx_it.c **** 
 222:Core/Src/stm32f4xx_it.c ****   /* USER CODE END EXTI9_5_IRQn 0 */
 223:Core/Src/stm32f4xx_it.c ****   HAL_GPIO_EXTI_IRQHandler(INT1_GYRO_Pin);
 261              		.loc 1 223 3 view .LVU32
 262 0002 2020     		movs	r0, #32
 263 0004 FFF7FEFF 		bl	HAL_GPIO_EXTI_IRQHandler
 264              	.LVL3:
 224:Core/Src/stm32f4xx_it.c ****   /* USER CODE BEGIN EXTI9_5_IRQn 1 */
 225:Core/Src/stm32f4xx_it.c **** 
 226:Core/Src/stm32f4xx_it.c ****   /* USER CODE END EXTI9_5_IRQn 1 */
 227:Core/Src/stm32f4xx_it.c **** }
 265              		.loc 1 227 1 is_stmt 0 view .LVU33
 266 0008 08BD     		pop	{r3, pc}
 267              		.cfi_endproc
 268              	.LFE139:
 270              		.section	.text.TIM1_UP_TIM10_IRQHandler,"ax",%progbits
 271              		.align	1
 272              		.global	TIM1_UP_TIM10_IRQHandler
 273              		.syntax unified
 274              		.thumb
 275              		.thumb_func
 277              	TIM1_UP_TIM10_IRQHandler:
 278              	.LFB140:
 228:Core/Src/stm32f4xx_it.c **** 
 229:Core/Src/stm32f4xx_it.c **** /**
 230:Core/Src/stm32f4xx_it.c ****   * @brief This function handles TIM1 update interrupt and TIM10 global interrupt.
 231:Core/Src/stm32f4xx_it.c ****   */
 232:Core/Src/stm32f4xx_it.c **** void TIM1_UP_TIM10_IRQHandler(void)
 233:Core/Src/stm32f4xx_it.c **** {
 279              		.loc 1 233 1 is_stmt 1 view -0
 280              		.cfi_startproc
 281              		@ args = 0, pretend = 0, frame = 0
 282              		@ frame_needed = 0, uses_anonymous_args = 0
 283 0000 08B5     		push	{r3, lr}
 284              	.LCFI4:
 285              		.cfi_def_cfa_offset 8
 286              		.cfi_offset 3, -8
 287              		.cfi_offset 14, -4
 234:Core/Src/stm32f4xx_it.c ****   /* USER CODE BEGIN TIM1_UP_TIM10_IRQn 0 */
 235:Core/Src/stm32f4xx_it.c **** 
 236:Core/Src/stm32f4xx_it.c ****   /* USER CODE END TIM1_UP_TIM10_IRQn 0 */
 237:Core/Src/stm32f4xx_it.c ****   HAL_TIM_IRQHandler(&htim1);
 288              		.loc 1 237 3 view .LVU35
 289 0002 0348     		ldr	r0, .L26
 290 0004 FFF7FEFF 		bl	HAL_TIM_IRQHandler
 291              	.LVL4:
 238:Core/Src/stm32f4xx_it.c ****   HAL_TIM_IRQHandler(&htim10);
ARM GAS  C:\Users\28212\AppData\Local\Temp\ccUcRdF6.s 			page 10


 292              		.loc 1 238 3 view .LVU36
 293 0008 0248     		ldr	r0, .L26+4
 294 000a FFF7FEFF 		bl	HAL_TIM_IRQHandler
 295              	.LVL5:
 239:Core/Src/stm32f4xx_it.c ****   /* USER CODE BEGIN TIM1_UP_TIM10_IRQn 1 */
 240:Core/Src/stm32f4xx_it.c **** 
 241:Core/Src/stm32f4xx_it.c ****   /* USER CODE END TIM1_UP_TIM10_IRQn 1 */
 242:Core/Src/stm32f4xx_it.c **** }
 296              		.loc 1 242 1 is_stmt 0 view .LVU37
 297 000e 08BD     		pop	{r3, pc}
 298              	.L27:
 299              		.align	2
 300              	.L26:
 301 0010 00000000 		.word	htim1
 302 0014 00000000 		.word	htim10
 303              		.cfi_endproc
 304              	.LFE140:
 306              		.section	.text.USART3_IRQHandler,"ax",%progbits
 307              		.align	1
 308              		.global	USART3_IRQHandler
 309              		.syntax unified
 310              		.thumb
 311              		.thumb_func
 313              	USART3_IRQHandler:
 314              	.LFB141:
 243:Core/Src/stm32f4xx_it.c **** 
 244:Core/Src/stm32f4xx_it.c **** /**
 245:Core/Src/stm32f4xx_it.c ****   * @brief This function handles USART3 global interrupt.
 246:Core/Src/stm32f4xx_it.c ****   */
 247:Core/Src/stm32f4xx_it.c **** void USART3_IRQHandler(void)
 248:Core/Src/stm32f4xx_it.c **** {
 315              		.loc 1 248 1 is_stmt 1 view -0
 316              		.cfi_startproc
 317              		@ args = 0, pretend = 0, frame = 0
 318              		@ frame_needed = 0, uses_anonymous_args = 0
 319 0000 08B5     		push	{r3, lr}
 320              	.LCFI5:
 321              		.cfi_def_cfa_offset 8
 322              		.cfi_offset 3, -8
 323              		.cfi_offset 14, -4
 249:Core/Src/stm32f4xx_it.c ****   /* USER CODE BEGIN USART3_IRQn 0 */
 250:Core/Src/stm32f4xx_it.c **** 
 251:Core/Src/stm32f4xx_it.c ****   /* USER CODE END USART3_IRQn 0 */
 252:Core/Src/stm32f4xx_it.c ****   HAL_UART_IRQHandler(&huart3);
 324              		.loc 1 252 3 view .LVU39
 325 0002 0248     		ldr	r0, .L30
 326 0004 FFF7FEFF 		bl	HAL_UART_IRQHandler
 327              	.LVL6:
 253:Core/Src/stm32f4xx_it.c ****   /* USER CODE BEGIN USART3_IRQn 1 */
 254:Core/Src/stm32f4xx_it.c **** 
 255:Core/Src/stm32f4xx_it.c ****   /* USER CODE END USART3_IRQn 1 */
 256:Core/Src/stm32f4xx_it.c **** }
 328              		.loc 1 256 1 is_stmt 0 view .LVU40
 329 0008 08BD     		pop	{r3, pc}
 330              	.L31:
 331 000a 00BF     		.align	2
 332              	.L30:
ARM GAS  C:\Users\28212\AppData\Local\Temp\ccUcRdF6.s 			page 11


 333 000c 00000000 		.word	huart3
 334              		.cfi_endproc
 335              	.LFE141:
 337              		.section	.text.DMA2_Stream0_IRQHandler,"ax",%progbits
 338              		.align	1
 339              		.global	DMA2_Stream0_IRQHandler
 340              		.syntax unified
 341              		.thumb
 342              		.thumb_func
 344              	DMA2_Stream0_IRQHandler:
 345              	.LFB142:
 257:Core/Src/stm32f4xx_it.c **** 
 258:Core/Src/stm32f4xx_it.c **** /**
 259:Core/Src/stm32f4xx_it.c ****   * @brief This function handles DMA2 stream0 global interrupt.
 260:Core/Src/stm32f4xx_it.c ****   */
 261:Core/Src/stm32f4xx_it.c **** void DMA2_Stream0_IRQHandler(void)
 262:Core/Src/stm32f4xx_it.c **** {
 346              		.loc 1 262 1 is_stmt 1 view -0
 347              		.cfi_startproc
 348              		@ args = 0, pretend = 0, frame = 0
 349              		@ frame_needed = 0, uses_anonymous_args = 0
 350 0000 08B5     		push	{r3, lr}
 351              	.LCFI6:
 352              		.cfi_def_cfa_offset 8
 353              		.cfi_offset 3, -8
 354              		.cfi_offset 14, -4
 263:Core/Src/stm32f4xx_it.c ****   /* USER CODE BEGIN DMA2_Stream0_IRQn 0 */
 264:Core/Src/stm32f4xx_it.c **** 
 265:Core/Src/stm32f4xx_it.c ****   /* USER CODE END DMA2_Stream0_IRQn 0 */
 266:Core/Src/stm32f4xx_it.c ****   HAL_DMA_IRQHandler(&hdma_spi1_rx);
 355              		.loc 1 266 3 view .LVU42
 356 0002 0248     		ldr	r0, .L34
 357 0004 FFF7FEFF 		bl	HAL_DMA_IRQHandler
 358              	.LVL7:
 267:Core/Src/stm32f4xx_it.c ****   /* USER CODE BEGIN DMA2_Stream0_IRQn 1 */
 268:Core/Src/stm32f4xx_it.c **** 
 269:Core/Src/stm32f4xx_it.c ****   /* USER CODE END DMA2_Stream0_IRQn 1 */
 270:Core/Src/stm32f4xx_it.c **** }
 359              		.loc 1 270 1 is_stmt 0 view .LVU43
 360 0008 08BD     		pop	{r3, pc}
 361              	.L35:
 362 000a 00BF     		.align	2
 363              	.L34:
 364 000c 00000000 		.word	hdma_spi1_rx
 365              		.cfi_endproc
 366              	.LFE142:
 368              		.section	.text.DMA2_Stream1_IRQHandler,"ax",%progbits
 369              		.align	1
 370              		.global	DMA2_Stream1_IRQHandler
 371              		.syntax unified
 372              		.thumb
 373              		.thumb_func
 375              	DMA2_Stream1_IRQHandler:
 376              	.LFB143:
 271:Core/Src/stm32f4xx_it.c **** 
 272:Core/Src/stm32f4xx_it.c **** /**
 273:Core/Src/stm32f4xx_it.c ****   * @brief This function handles DMA2 stream1 global interrupt.
ARM GAS  C:\Users\28212\AppData\Local\Temp\ccUcRdF6.s 			page 12


 274:Core/Src/stm32f4xx_it.c ****   */
 275:Core/Src/stm32f4xx_it.c **** void DMA2_Stream1_IRQHandler(void)
 276:Core/Src/stm32f4xx_it.c **** {
 377              		.loc 1 276 1 is_stmt 1 view -0
 378              		.cfi_startproc
 379              		@ args = 0, pretend = 0, frame = 0
 380              		@ frame_needed = 0, uses_anonymous_args = 0
 381 0000 08B5     		push	{r3, lr}
 382              	.LCFI7:
 383              		.cfi_def_cfa_offset 8
 384              		.cfi_offset 3, -8
 385              		.cfi_offset 14, -4
 277:Core/Src/stm32f4xx_it.c ****   /* USER CODE BEGIN DMA2_Stream1_IRQn 0 */
 278:Core/Src/stm32f4xx_it.c **** 
 279:Core/Src/stm32f4xx_it.c ****   /* USER CODE END DMA2_Stream1_IRQn 0 */
 280:Core/Src/stm32f4xx_it.c ****   HAL_DMA_IRQHandler(&hdma_usart6_rx);
 386              		.loc 1 280 3 view .LVU45
 387 0002 0248     		ldr	r0, .L38
 388 0004 FFF7FEFF 		bl	HAL_DMA_IRQHandler
 389              	.LVL8:
 281:Core/Src/stm32f4xx_it.c ****   /* USER CODE BEGIN DMA2_Stream1_IRQn 1 */
 282:Core/Src/stm32f4xx_it.c **** 
 283:Core/Src/stm32f4xx_it.c ****   /* USER CODE END DMA2_Stream1_IRQn 1 */
 284:Core/Src/stm32f4xx_it.c **** }
 390              		.loc 1 284 1 is_stmt 0 view .LVU46
 391 0008 08BD     		pop	{r3, pc}
 392              	.L39:
 393 000a 00BF     		.align	2
 394              	.L38:
 395 000c 00000000 		.word	hdma_usart6_rx
 396              		.cfi_endproc
 397              	.LFE143:
 399              		.section	.text.DMA2_Stream3_IRQHandler,"ax",%progbits
 400              		.align	1
 401              		.global	DMA2_Stream3_IRQHandler
 402              		.syntax unified
 403              		.thumb
 404              		.thumb_func
 406              	DMA2_Stream3_IRQHandler:
 407              	.LFB144:
 285:Core/Src/stm32f4xx_it.c **** 
 286:Core/Src/stm32f4xx_it.c **** /**
 287:Core/Src/stm32f4xx_it.c ****   * @brief This function handles DMA2 stream3 global interrupt.
 288:Core/Src/stm32f4xx_it.c ****   */
 289:Core/Src/stm32f4xx_it.c **** void DMA2_Stream3_IRQHandler(void)
 290:Core/Src/stm32f4xx_it.c **** {
 408              		.loc 1 290 1 is_stmt 1 view -0
 409              		.cfi_startproc
 410              		@ args = 0, pretend = 0, frame = 0
 411              		@ frame_needed = 0, uses_anonymous_args = 0
 412 0000 08B5     		push	{r3, lr}
 413              	.LCFI8:
 414              		.cfi_def_cfa_offset 8
 415              		.cfi_offset 3, -8
 416              		.cfi_offset 14, -4
 291:Core/Src/stm32f4xx_it.c ****   /* USER CODE BEGIN DMA2_Stream3_IRQn 0 */
 292:Core/Src/stm32f4xx_it.c **** 
ARM GAS  C:\Users\28212\AppData\Local\Temp\ccUcRdF6.s 			page 13


 293:Core/Src/stm32f4xx_it.c ****   /* USER CODE END DMA2_Stream3_IRQn 0 */
 294:Core/Src/stm32f4xx_it.c ****   HAL_DMA_IRQHandler(&hdma_spi1_tx);
 417              		.loc 1 294 3 view .LVU48
 418 0002 0248     		ldr	r0, .L42
 419 0004 FFF7FEFF 		bl	HAL_DMA_IRQHandler
 420              	.LVL9:
 295:Core/Src/stm32f4xx_it.c ****   /* USER CODE BEGIN DMA2_Stream3_IRQn 1 */
 296:Core/Src/stm32f4xx_it.c **** 
 297:Core/Src/stm32f4xx_it.c ****   /* USER CODE END DMA2_Stream3_IRQn 1 */
 298:Core/Src/stm32f4xx_it.c **** }
 421              		.loc 1 298 1 is_stmt 0 view .LVU49
 422 0008 08BD     		pop	{r3, pc}
 423              	.L43:
 424 000a 00BF     		.align	2
 425              	.L42:
 426 000c 00000000 		.word	hdma_spi1_tx
 427              		.cfi_endproc
 428              	.LFE144:
 430              		.section	.text.CAN2_RX0_IRQHandler,"ax",%progbits
 431              		.align	1
 432              		.global	CAN2_RX0_IRQHandler
 433              		.syntax unified
 434              		.thumb
 435              		.thumb_func
 437              	CAN2_RX0_IRQHandler:
 438              	.LFB145:
 299:Core/Src/stm32f4xx_it.c **** 
 300:Core/Src/stm32f4xx_it.c **** /**
 301:Core/Src/stm32f4xx_it.c ****   * @brief This function handles CAN2 RX0 interrupts.
 302:Core/Src/stm32f4xx_it.c ****   */
 303:Core/Src/stm32f4xx_it.c **** void CAN2_RX0_IRQHandler(void)
 304:Core/Src/stm32f4xx_it.c **** {
 439              		.loc 1 304 1 is_stmt 1 view -0
 440              		.cfi_startproc
 441              		@ args = 0, pretend = 0, frame = 0
 442              		@ frame_needed = 0, uses_anonymous_args = 0
 443 0000 08B5     		push	{r3, lr}
 444              	.LCFI9:
 445              		.cfi_def_cfa_offset 8
 446              		.cfi_offset 3, -8
 447              		.cfi_offset 14, -4
 305:Core/Src/stm32f4xx_it.c ****   /* USER CODE BEGIN CAN2_RX0_IRQn 0 */
 306:Core/Src/stm32f4xx_it.c **** 
 307:Core/Src/stm32f4xx_it.c ****   /* USER CODE END CAN2_RX0_IRQn 0 */
 308:Core/Src/stm32f4xx_it.c ****   HAL_CAN_IRQHandler(&hcan2);
 448              		.loc 1 308 3 view .LVU51
 449 0002 0248     		ldr	r0, .L46
 450 0004 FFF7FEFF 		bl	HAL_CAN_IRQHandler
 451              	.LVL10:
 309:Core/Src/stm32f4xx_it.c ****   /* USER CODE BEGIN CAN2_RX0_IRQn 1 */
 310:Core/Src/stm32f4xx_it.c **** 
 311:Core/Src/stm32f4xx_it.c ****   /* USER CODE END CAN2_RX0_IRQn 1 */
 312:Core/Src/stm32f4xx_it.c **** }
 452              		.loc 1 312 1 is_stmt 0 view .LVU52
 453 0008 08BD     		pop	{r3, pc}
 454              	.L47:
 455 000a 00BF     		.align	2
ARM GAS  C:\Users\28212\AppData\Local\Temp\ccUcRdF6.s 			page 14


 456              	.L46:
 457 000c 00000000 		.word	hcan2
 458              		.cfi_endproc
 459              	.LFE145:
 461              		.section	.text.OTG_FS_IRQHandler,"ax",%progbits
 462              		.align	1
 463              		.global	OTG_FS_IRQHandler
 464              		.syntax unified
 465              		.thumb
 466              		.thumb_func
 468              	OTG_FS_IRQHandler:
 469              	.LFB146:
 313:Core/Src/stm32f4xx_it.c **** 
 314:Core/Src/stm32f4xx_it.c **** /**
 315:Core/Src/stm32f4xx_it.c ****   * @brief This function handles USB On The Go FS global interrupt.
 316:Core/Src/stm32f4xx_it.c ****   */
 317:Core/Src/stm32f4xx_it.c **** void OTG_FS_IRQHandler(void)
 318:Core/Src/stm32f4xx_it.c **** {
 470              		.loc 1 318 1 is_stmt 1 view -0
 471              		.cfi_startproc
 472              		@ args = 0, pretend = 0, frame = 0
 473              		@ frame_needed = 0, uses_anonymous_args = 0
 474 0000 08B5     		push	{r3, lr}
 475              	.LCFI10:
 476              		.cfi_def_cfa_offset 8
 477              		.cfi_offset 3, -8
 478              		.cfi_offset 14, -4
 319:Core/Src/stm32f4xx_it.c ****   /* USER CODE BEGIN OTG_FS_IRQn 0 */
 320:Core/Src/stm32f4xx_it.c **** 
 321:Core/Src/stm32f4xx_it.c ****   /* USER CODE END OTG_FS_IRQn 0 */
 322:Core/Src/stm32f4xx_it.c ****   HAL_PCD_IRQHandler(&hpcd_USB_OTG_FS);
 479              		.loc 1 322 3 view .LVU54
 480 0002 0248     		ldr	r0, .L50
 481 0004 FFF7FEFF 		bl	HAL_PCD_IRQHandler
 482              	.LVL11:
 323:Core/Src/stm32f4xx_it.c ****   /* USER CODE BEGIN OTG_FS_IRQn 1 */
 324:Core/Src/stm32f4xx_it.c **** 
 325:Core/Src/stm32f4xx_it.c ****   /* USER CODE END OTG_FS_IRQn 1 */
 326:Core/Src/stm32f4xx_it.c **** }
 483              		.loc 1 326 1 is_stmt 0 view .LVU55
 484 0008 08BD     		pop	{r3, pc}
 485              	.L51:
 486 000a 00BF     		.align	2
 487              	.L50:
 488 000c 00000000 		.word	hpcd_USB_OTG_FS
 489              		.cfi_endproc
 490              	.LFE146:
 492              		.section	.text.DMA2_Stream6_IRQHandler,"ax",%progbits
 493              		.align	1
 494              		.global	DMA2_Stream6_IRQHandler
 495              		.syntax unified
 496              		.thumb
 497              		.thumb_func
 499              	DMA2_Stream6_IRQHandler:
 500              	.LFB147:
 327:Core/Src/stm32f4xx_it.c **** 
 328:Core/Src/stm32f4xx_it.c **** /**
ARM GAS  C:\Users\28212\AppData\Local\Temp\ccUcRdF6.s 			page 15


 329:Core/Src/stm32f4xx_it.c ****   * @brief This function handles DMA2 stream6 global interrupt.
 330:Core/Src/stm32f4xx_it.c ****   */
 331:Core/Src/stm32f4xx_it.c **** void DMA2_Stream6_IRQHandler(void)
 332:Core/Src/stm32f4xx_it.c **** {
 501              		.loc 1 332 1 is_stmt 1 view -0
 502              		.cfi_startproc
 503              		@ args = 0, pretend = 0, frame = 0
 504              		@ frame_needed = 0, uses_anonymous_args = 0
 505 0000 08B5     		push	{r3, lr}
 506              	.LCFI11:
 507              		.cfi_def_cfa_offset 8
 508              		.cfi_offset 3, -8
 509              		.cfi_offset 14, -4
 333:Core/Src/stm32f4xx_it.c ****   /* USER CODE BEGIN DMA2_Stream6_IRQn 0 */
 334:Core/Src/stm32f4xx_it.c **** 
 335:Core/Src/stm32f4xx_it.c ****   /* USER CODE END DMA2_Stream6_IRQn 0 */
 336:Core/Src/stm32f4xx_it.c ****   HAL_DMA_IRQHandler(&hdma_usart6_tx);
 510              		.loc 1 336 3 view .LVU57
 511 0002 0248     		ldr	r0, .L54
 512 0004 FFF7FEFF 		bl	HAL_DMA_IRQHandler
 513              	.LVL12:
 337:Core/Src/stm32f4xx_it.c ****   /* USER CODE BEGIN DMA2_Stream6_IRQn 1 */
 338:Core/Src/stm32f4xx_it.c **** 
 339:Core/Src/stm32f4xx_it.c ****   /* USER CODE END DMA2_Stream6_IRQn 1 */
 340:Core/Src/stm32f4xx_it.c **** }
 514              		.loc 1 340 1 is_stmt 0 view .LVU58
 515 0008 08BD     		pop	{r3, pc}
 516              	.L55:
 517 000a 00BF     		.align	2
 518              	.L54:
 519 000c 00000000 		.word	hdma_usart6_tx
 520              		.cfi_endproc
 521              	.LFE147:
 523              		.section	.text.USART6_IRQHandler,"ax",%progbits
 524              		.align	1
 525              		.global	USART6_IRQHandler
 526              		.syntax unified
 527              		.thumb
 528              		.thumb_func
 530              	USART6_IRQHandler:
 531              	.LFB148:
 341:Core/Src/stm32f4xx_it.c **** 
 342:Core/Src/stm32f4xx_it.c **** /**
 343:Core/Src/stm32f4xx_it.c ****   * @brief This function handles USART6 global interrupt.
 344:Core/Src/stm32f4xx_it.c ****   */
 345:Core/Src/stm32f4xx_it.c **** void USART6_IRQHandler(void)
 346:Core/Src/stm32f4xx_it.c **** {
 532              		.loc 1 346 1 is_stmt 1 view -0
 533              		.cfi_startproc
 534              		@ args = 0, pretend = 0, frame = 0
 535              		@ frame_needed = 0, uses_anonymous_args = 0
 536 0000 08B5     		push	{r3, lr}
 537              	.LCFI12:
 538              		.cfi_def_cfa_offset 8
 539              		.cfi_offset 3, -8
 540              		.cfi_offset 14, -4
 347:Core/Src/stm32f4xx_it.c ****   /* USER CODE BEGIN USART6_IRQn 0 */
ARM GAS  C:\Users\28212\AppData\Local\Temp\ccUcRdF6.s 			page 16


 348:Core/Src/stm32f4xx_it.c **** 
 349:Core/Src/stm32f4xx_it.c ****   /* USER CODE END USART6_IRQn 0 */
 350:Core/Src/stm32f4xx_it.c ****   HAL_UART_IRQHandler(&huart6);
 541              		.loc 1 350 3 view .LVU60
 542 0002 0248     		ldr	r0, .L58
 543 0004 FFF7FEFF 		bl	HAL_UART_IRQHandler
 544              	.LVL13:
 351:Core/Src/stm32f4xx_it.c ****   /* USER CODE BEGIN USART6_IRQn 1 */
 352:Core/Src/stm32f4xx_it.c **** 
 353:Core/Src/stm32f4xx_it.c ****   /* USER CODE END USART6_IRQn 1 */
 354:Core/Src/stm32f4xx_it.c **** }
 545              		.loc 1 354 1 is_stmt 0 view .LVU61
 546 0008 08BD     		pop	{r3, pc}
 547              	.L59:
 548 000a 00BF     		.align	2
 549              	.L58:
 550 000c 00000000 		.word	huart6
 551              		.cfi_endproc
 552              	.LFE148:
 554              		.text
 555              	.Letext0:
 556              		.file 2 "d:\\gcc-arm-none-eabi-10.3-2021.10\\arm-none-eabi\\include\\machine\\_default_types.h"
 557              		.file 3 "d:\\gcc-arm-none-eabi-10.3-2021.10\\arm-none-eabi\\include\\sys\\_stdint.h"
 558              		.file 4 "Drivers/CMSIS/Device/ST/STM32F4xx/Include/stm32f407xx.h"
 559              		.file 5 "Drivers/CMSIS/Device/ST/STM32F4xx/Include/stm32f4xx.h"
 560              		.file 6 "Drivers/STM32F4xx_HAL_Driver/Inc/stm32f4xx_hal_def.h"
 561              		.file 7 "Drivers/STM32F4xx_HAL_Driver/Inc/stm32f4xx_hal_dma.h"
 562              		.file 8 "Drivers/STM32F4xx_HAL_Driver/Inc/stm32f4xx_hal_can.h"
 563              		.file 9 "Drivers/STM32F4xx_HAL_Driver/Inc/stm32f4xx_hal_tim.h"
 564              		.file 10 "Drivers/STM32F4xx_HAL_Driver/Inc/stm32f4xx_hal_uart.h"
 565              		.file 11 "Drivers/STM32F4xx_HAL_Driver/Inc/stm32f4xx_ll_usb.h"
 566              		.file 12 "Drivers/STM32F4xx_HAL_Driver/Inc/stm32f4xx_hal_pcd.h"
 567              		.file 13 "Drivers/STM32F4xx_HAL_Driver/Inc/stm32f4xx_hal_gpio.h"
ARM GAS  C:\Users\28212\AppData\Local\Temp\ccUcRdF6.s 			page 17

